Archive member included to satisfy reference by file (symbol)

/opt/ti/ipc_3_47_01_00/linux/src/transport/.libs/libtitransportrpmsg.a(TransportRpmsg.o)
                              bin/debug/obj/main_host.ov7A (TransportRpmsg_Factory)
/opt/ti/ipc_3_47_01_00/linux/src/api/.libs/libtiipc.a(MessageQ.o)
                              /opt/ti/ipc_3_47_01_00/linux/src/transport/.libs/libtitransportrpmsg.a(TransportRpmsg.o) (MessageQ_registerTransport)
/opt/ti/ipc_3_47_01_00/linux/src/api/.libs/libtiipc.a(NameServer.o)
                              /opt/ti/ipc_3_47_01_00/linux/src/api/.libs/libtiipc.a(MessageQ.o) (NameServer_getUInt32)
/opt/ti/ipc_3_47_01_00/linux/src/api/.libs/libtiipc.a(Ipc.o)
                              bin/debug/obj/main_host.ov7A (Ipc_transportConfig)
/opt/ti/ipc_3_47_01_00/linux/src/api/.libs/libtiipc.a(HeapStd.o)
                              /opt/ti/ipc_3_47_01_00/linux/src/api/.libs/libtiipc.a(Ipc.o) (HeapStd_handle)
/opt/ti/ipc_3_47_01_00/linux/src/api/.libs/libtiipc.a(GateMP.o)
                              /opt/ti/ipc_3_47_01_00/linux/src/api/.libs/libtiipc.a(Ipc.o) (GateMP_attach)
/opt/ti/ipc_3_47_01_00/linux/src/api/.libs/libtiipc.a(GateHWSpinlock.o)
                              /opt/ti/ipc_3_47_01_00/linux/src/api/.libs/libtiipc.a(Ipc.o) (GateHWSpinlock_getConfig)
/opt/ti/ipc_3_47_01_00/linux/src/api/.libs/libtiipc.a(MultiProc.o)
                              /opt/ti/ipc_3_47_01_00/linux/src/api/.libs/libtiipc.a(Ipc.o) (MultiProc_getConfig)
/opt/ti/ipc_3_47_01_00/linux/src/api/.libs/libtiipc.a(GateMutex.o)
                              /opt/ti/ipc_3_47_01_00/linux/src/api/.libs/libtiipc.a(GateHWSpinlock.o) (GateMutex_create)
/opt/ti/ipc_3_47_01_00/linux/src/utils/.libs/libtiipcutils.a(LAD_client.o)
                              /opt/ti/ipc_3_47_01_00/linux/src/api/.libs/libtiipc.a(MessageQ.o) (LAD_findHandle)
/opt/ti/ipc_3_47_01_00/linux/src/utils/.libs/libtiipcutils.a(MultiProc.o)
                              /opt/ti/ipc_3_47_01_00/linux/src/transport/.libs/libtitransportrpmsg.a(TransportRpmsg.o) (MultiProc_getBaseIdOfCluster)
/opt/ti/ipc_3_47_01_00/linux/src/utils/.libs/libtiipcutils.a(MultiProc_app.o)
                              /opt/ti/ipc_3_47_01_00/linux/src/api/.libs/libtiipc.a(Ipc.o) (_MultiProc_initCfg)
/opt/ti/ipc_3_47_01_00/linux/src/utils/.libs/libtiipcutils.a(SocketFxns.o)
                              /opt/ti/ipc_3_47_01_00/linux/src/transport/.libs/libtitransportrpmsg.a(TransportRpmsg.o) (ConnectSocket)
/opt/ti-processor-sdk-linux-rt-am57xx-evm-04.03.00.05/linux-devkit/sysroots/x86_64-arago-linux/usr/bin/../arm-linux-gnueabihf/libc/usr/lib/arm-linux-gnueabihf/6.2.1/./libc_nonshared.a(elf-init.oS)
                              /opt/ti-processor-sdk-linux-rt-am57xx-evm-04.03.00.05/linux-devkit/sysroots/x86_64-arago-linux/usr/bin/../arm-linux-gnueabihf/libc/usr/lib/arm-linux-gnueabihf/6.2.1/crt1.o (__libc_csu_init)

Allocating common symbols
Common symbol       size              file

_GateHWSpinlock_cfgParams
                    0xc               /opt/ti/ipc_3_47_01_00/linux/src/api/.libs/libtiipc.a(Ipc.o)
_MultiProc_cfg      0x174             /opt/ti/ipc_3_47_01_00/linux/src/utils/.libs/libtiipcutils.a(MultiProc_app.o)

Discarded input sections

 .note.GNU-stack
                0x0000000000000000        0x0 /opt/ti-processor-sdk-linux-rt-am57xx-evm-04.03.00.05/linux-devkit/sysroots/x86_64-arago-linux/usr/bin/../arm-linux-gnueabihf/libc/usr/lib/arm-linux-gnueabihf/6.2.1/crt1.o
 .note.GNU-stack
                0x0000000000000000        0x0 /opt/ti-processor-sdk-linux-rt-am57xx-evm-04.03.00.05/linux-devkit/sysroots/x86_64-arago-linux/usr/bin/../arm-linux-gnueabihf/libc/usr/lib/arm-linux-gnueabihf/6.2.1/crti.o
 .note.GNU-stack
                0x0000000000000000        0x0 /opt/ti-processor-sdk-linux-rt-am57xx-evm-04.03.00.05/linux-devkit/sysroots/x86_64-arago-linux/usr/bin/../lib/gcc/arm-linux-gnueabihf/6.2.1/crtbegin.o
 .note.GNU-stack
                0x0000000000000000        0x0 bin/debug/obj/main_host.ov7A
 .note.GNU-stack
                0x0000000000000000        0x0 bin/debug/obj/App.ov7A
 .note.GNU-stack
                0x0000000000000000        0x0 /opt/ti/ipc_3_47_01_00/linux/src/transport/.libs/libtitransportrpmsg.a(TransportRpmsg.o)
 .note.GNU-stack
                0x0000000000000000        0x0 /opt/ti/ipc_3_47_01_00/linux/src/api/.libs/libtiipc.a(MessageQ.o)
 .note.GNU-stack
                0x0000000000000000        0x0 /opt/ti/ipc_3_47_01_00/linux/src/api/.libs/libtiipc.a(NameServer.o)
 .note.GNU-stack
                0x0000000000000000        0x0 /opt/ti/ipc_3_47_01_00/linux/src/api/.libs/libtiipc.a(Ipc.o)
 .note.GNU-stack
                0x0000000000000000        0x0 /opt/ti/ipc_3_47_01_00/linux/src/api/.libs/libtiipc.a(HeapStd.o)
 .note.GNU-stack
                0x0000000000000000        0x0 /opt/ti/ipc_3_47_01_00/linux/src/api/.libs/libtiipc.a(GateMP.o)
 .note.GNU-stack
                0x0000000000000000        0x0 /opt/ti/ipc_3_47_01_00/linux/src/api/.libs/libtiipc.a(GateHWSpinlock.o)
 .note.GNU-stack
                0x0000000000000000        0x0 /opt/ti/ipc_3_47_01_00/linux/src/api/.libs/libtiipc.a(MultiProc.o)
 .note.GNU-stack
                0x0000000000000000        0x0 /opt/ti/ipc_3_47_01_00/linux/src/api/.libs/libtiipc.a(GateMutex.o)
 .note.GNU-stack
                0x0000000000000000        0x0 /opt/ti/ipc_3_47_01_00/linux/src/utils/.libs/libtiipcutils.a(LAD_client.o)
 .note.GNU-stack
                0x0000000000000000        0x0 /opt/ti/ipc_3_47_01_00/linux/src/utils/.libs/libtiipcutils.a(MultiProc.o)
 .note.GNU-stack
                0x0000000000000000        0x0 /opt/ti/ipc_3_47_01_00/linux/src/utils/.libs/libtiipcutils.a(MultiProc_app.o)
 .note.GNU-stack
                0x0000000000000000        0x0 /opt/ti/ipc_3_47_01_00/linux/src/utils/.libs/libtiipcutils.a(SocketFxns.o)
 .note.GNU-stack
                0x0000000000000000        0x0 /opt/ti-processor-sdk-linux-rt-am57xx-evm-04.03.00.05/linux-devkit/sysroots/x86_64-arago-linux/usr/bin/../arm-linux-gnueabihf/libc/usr/lib/arm-linux-gnueabihf/6.2.1/./libc_nonshared.a(elf-init.oS)
 .note.GNU-stack
                0x0000000000000000        0x0 /opt/ti-processor-sdk-linux-rt-am57xx-evm-04.03.00.05/linux-devkit/sysroots/x86_64-arago-linux/usr/bin/../lib/gcc/arm-linux-gnueabihf/6.2.1/crtend.o
 .note.GNU-stack
                0x0000000000000000        0x0 /opt/ti-processor-sdk-linux-rt-am57xx-evm-04.03.00.05/linux-devkit/sysroots/x86_64-arago-linux/usr/bin/../arm-linux-gnueabihf/libc/usr/lib/arm-linux-gnueabihf/6.2.1/crtn.o

Memory Configuration

Name             Origin             Length             Attributes
*default*        0x0000000000000000 0xffffffffffffffff

Linker script and memory map

LOAD /opt/ti-processor-sdk-linux-rt-am57xx-evm-04.03.00.05/linux-devkit/sysroots/x86_64-arago-linux/usr/bin/../arm-linux-gnueabihf/libc/usr/lib/arm-linux-gnueabihf/6.2.1/crt1.o
LOAD /opt/ti-processor-sdk-linux-rt-am57xx-evm-04.03.00.05/linux-devkit/sysroots/x86_64-arago-linux/usr/bin/../arm-linux-gnueabihf/libc/usr/lib/arm-linux-gnueabihf/6.2.1/crti.o
LOAD /opt/ti-processor-sdk-linux-rt-am57xx-evm-04.03.00.05/linux-devkit/sysroots/x86_64-arago-linux/usr/bin/../lib/gcc/arm-linux-gnueabihf/6.2.1/crtbegin.o
LOAD bin/debug/obj/main_host.ov7A
LOAD bin/debug/obj/App.ov7A
LOAD /opt/ti/ipc_3_47_01_00/linux/src/transport/.libs/libtitransportrpmsg.a
LOAD /opt/ti/ipc_3_47_01_00/linux/src/api/.libs/libtiipc.a
LOAD /opt/ti/ipc_3_47_01_00/linux/src/utils/.libs/libtiipcutils.a
LOAD /opt/ti-processor-sdk-linux-rt-am57xx-evm-04.03.00.05/linux-devkit/sysroots/x86_64-arago-linux/usr/bin/../arm-linux-gnueabihf/libc/usr/lib/arm-linux-gnueabihf/6.2.1/libpthread.so
START GROUP
LOAD /opt/ti-processor-sdk-linux-rt-am57xx-evm-04.03.00.05/linux-devkit/sysroots/x86_64-arago-linux/usr/bin/../arm-linux-gnueabihf/libc/usr/lib/arm-linux-gnueabihf/6.2.1/../../lib/libpthread.so.0
LOAD /opt/ti-processor-sdk-linux-rt-am57xx-evm-04.03.00.05/linux-devkit/sysroots/x86_64-arago-linux/usr/bin/../arm-linux-gnueabihf/libc/usr/lib/arm-linux-gnueabihf/6.2.1/./libpthread_nonshared.a
END GROUP
LOAD /opt/ti-processor-sdk-linux-rt-am57xx-evm-04.03.00.05/linux-devkit/sysroots/x86_64-arago-linux/usr/bin/../arm-linux-gnueabihf/libc/usr/lib/arm-linux-gnueabihf/6.2.1/libc.so
START GROUP
LOAD /opt/ti-processor-sdk-linux-rt-am57xx-evm-04.03.00.05/linux-devkit/sysroots/x86_64-arago-linux/usr/bin/../arm-linux-gnueabihf/libc/usr/lib/arm-linux-gnueabihf/6.2.1/../../lib/libc.so.6
LOAD /opt/ti-processor-sdk-linux-rt-am57xx-evm-04.03.00.05/linux-devkit/sysroots/x86_64-arago-linux/usr/bin/../arm-linux-gnueabihf/libc/usr/lib/arm-linux-gnueabihf/6.2.1/./libc_nonshared.a
LOAD /opt/ti-processor-sdk-linux-rt-am57xx-evm-04.03.00.05/linux-devkit/sysroots/x86_64-arago-linux/usr/bin/../arm-linux-gnueabihf/libc/usr/lib/arm-linux-gnueabihf/6.2.1/../../lib/ld-linux-armhf.so.3
END GROUP
LOAD /opt/ti-processor-sdk-linux-rt-am57xx-evm-04.03.00.05/linux-devkit/sysroots/x86_64-arago-linux/usr/bin/../arm-linux-gnueabihf/libc/usr/lib/arm-linux-gnueabihf/6.2.1/librt.so
LOAD /opt/ti-processor-sdk-linux-rt-am57xx-evm-04.03.00.05/linux-devkit/sysroots/x86_64-arago-linux/usr/bin/../lib/gcc/arm-linux-gnueabihf/6.2.1/libgcc.a
LOAD /opt/ti-processor-sdk-linux-rt-am57xx-evm-04.03.00.05/linux-devkit/sysroots/x86_64-arago-linux/usr/bin/../lib/gcc/arm-linux-gnueabihf/6.2.1/../../../../arm-linux-gnueabihf/lib/libgcc_s.so
START GROUP
LOAD /opt/ti-processor-sdk-linux-rt-am57xx-evm-04.03.00.05/linux-devkit/sysroots/x86_64-arago-linux/usr/bin/../lib/gcc/arm-linux-gnueabihf/6.2.1/../../../../arm-linux-gnueabihf/lib/libgcc_s.so.1
LOAD /opt/ti-processor-sdk-linux-rt-am57xx-evm-04.03.00.05/linux-devkit/sysroots/x86_64-arago-linux/usr/bin/../lib/gcc/arm-linux-gnueabihf/6.2.1/libgcc.a
END GROUP
LOAD /opt/ti-processor-sdk-linux-rt-am57xx-evm-04.03.00.05/linux-devkit/sysroots/x86_64-arago-linux/usr/bin/../arm-linux-gnueabihf/libc/usr/lib/arm-linux-gnueabihf/6.2.1/libc.so
START GROUP
LOAD /opt/ti-processor-sdk-linux-rt-am57xx-evm-04.03.00.05/linux-devkit/sysroots/x86_64-arago-linux/usr/bin/../arm-linux-gnueabihf/libc/usr/lib/arm-linux-gnueabihf/6.2.1/../../lib/libc.so.6
LOAD /opt/ti-processor-sdk-linux-rt-am57xx-evm-04.03.00.05/linux-devkit/sysroots/x86_64-arago-linux/usr/bin/../arm-linux-gnueabihf/libc/usr/lib/arm-linux-gnueabihf/6.2.1/./libc_nonshared.a
LOAD /opt/ti-processor-sdk-linux-rt-am57xx-evm-04.03.00.05/linux-devkit/sysroots/x86_64-arago-linux/usr/bin/../arm-linux-gnueabihf/libc/usr/lib/arm-linux-gnueabihf/6.2.1/../../lib/ld-linux-armhf.so.3
END GROUP
LOAD /opt/ti-processor-sdk-linux-rt-am57xx-evm-04.03.00.05/linux-devkit/sysroots/x86_64-arago-linux/usr/bin/../lib/gcc/arm-linux-gnueabihf/6.2.1/libgcc.a
LOAD /opt/ti-processor-sdk-linux-rt-am57xx-evm-04.03.00.05/linux-devkit/sysroots/x86_64-arago-linux/usr/bin/../lib/gcc/arm-linux-gnueabihf/6.2.1/../../../../arm-linux-gnueabihf/lib/libgcc_s.so
START GROUP
LOAD /opt/ti-processor-sdk-linux-rt-am57xx-evm-04.03.00.05/linux-devkit/sysroots/x86_64-arago-linux/usr/bin/../lib/gcc/arm-linux-gnueabihf/6.2.1/../../../../arm-linux-gnueabihf/lib/libgcc_s.so.1
LOAD /opt/ti-processor-sdk-linux-rt-am57xx-evm-04.03.00.05/linux-devkit/sysroots/x86_64-arago-linux/usr/bin/../lib/gcc/arm-linux-gnueabihf/6.2.1/libgcc.a
END GROUP
LOAD /opt/ti-processor-sdk-linux-rt-am57xx-evm-04.03.00.05/linux-devkit/sysroots/x86_64-arago-linux/usr/bin/../lib/gcc/arm-linux-gnueabihf/6.2.1/crtend.o
LOAD /opt/ti-processor-sdk-linux-rt-am57xx-evm-04.03.00.05/linux-devkit/sysroots/x86_64-arago-linux/usr/bin/../arm-linux-gnueabihf/libc/usr/lib/arm-linux-gnueabihf/6.2.1/crtn.o
                [!provide]                        PROVIDE (__executable_start, 0x10000)
                0x0000000000010134                . = (0x10000 + SIZEOF_HEADERS)

.interp         0x0000000000010134       0x19
 *(.interp)
 .interp        0x0000000000010134       0x19 /opt/ti-processor-sdk-linux-rt-am57xx-evm-04.03.00.05/linux-devkit/sysroots/x86_64-arago-linux/usr/bin/../arm-linux-gnueabihf/libc/usr/lib/arm-linux-gnueabihf/6.2.1/crt1.o

.note.ABI-tag   0x0000000000010150       0x20
 .note.ABI-tag  0x0000000000010150       0x20 /opt/ti-processor-sdk-linux-rt-am57xx-evm-04.03.00.05/linux-devkit/sysroots/x86_64-arago-linux/usr/bin/../arm-linux-gnueabihf/libc/usr/lib/arm-linux-gnueabihf/6.2.1/crt1.o

.note.gnu.build-id
                0x0000000000010170       0x24
 *(.note.gnu.build-id)
 .note.gnu.build-id
                0x0000000000010170       0x24 linker stubs

.hash           0x0000000000010194      0x230
 *(.hash)
 .hash          0x0000000000010194      0x230 /opt/ti-processor-sdk-linux-rt-am57xx-evm-04.03.00.05/linux-devkit/sysroots/x86_64-arago-linux/usr/bin/../arm-linux-gnueabihf/libc/usr/lib/arm-linux-gnueabihf/6.2.1/crt1.o

.gnu.hash
 *(.gnu.hash)

.dynsym         0x00000000000103c4      0x470
 *(.dynsym)
 .dynsym        0x00000000000103c4      0x470 /opt/ti-processor-sdk-linux-rt-am57xx-evm-04.03.00.05/linux-devkit/sysroots/x86_64-arago-linux/usr/bin/../arm-linux-gnueabihf/libc/usr/lib/arm-linux-gnueabihf/6.2.1/crt1.o

.dynstr         0x0000000000010834      0x2eb
 *(.dynstr)
 .dynstr        0x0000000000010834      0x2eb /opt/ti-processor-sdk-linux-rt-am57xx-evm-04.03.00.05/linux-devkit/sysroots/x86_64-arago-linux/usr/bin/../arm-linux-gnueabihf/libc/usr/lib/arm-linux-gnueabihf/6.2.1/crt1.o

.gnu.version    0x0000000000010b20       0x8e
 *(.gnu.version)
 .gnu.version   0x0000000000010b20       0x8e /opt/ti-processor-sdk-linux-rt-am57xx-evm-04.03.00.05/linux-devkit/sysroots/x86_64-arago-linux/usr/bin/../arm-linux-gnueabihf/libc/usr/lib/arm-linux-gnueabihf/6.2.1/crt1.o

.gnu.version_d  0x0000000000010bb0        0x0
 *(.gnu.version_d)
 .gnu.version_d
                0x0000000000010bb0        0x0 /opt/ti-processor-sdk-linux-rt-am57xx-evm-04.03.00.05/linux-devkit/sysroots/x86_64-arago-linux/usr/bin/../arm-linux-gnueabihf/libc/usr/lib/arm-linux-gnueabihf/6.2.1/crt1.o

.gnu.version_r  0x0000000000010bb0       0x50
 *(.gnu.version_r)
 .gnu.version_r
                0x0000000000010bb0       0x50 /opt/ti-processor-sdk-linux-rt-am57xx-evm-04.03.00.05/linux-devkit/sysroots/x86_64-arago-linux/usr/bin/../arm-linux-gnueabihf/libc/usr/lib/arm-linux-gnueabihf/6.2.1/crt1.o

.rel.dyn        0x0000000000010c00       0x10
 *(.rel.init)
 *(.rel.text .rel.text.* .rel.gnu.linkonce.t.*)
 *(.rel.fini)
 *(.rel.rodata .rel.rodata.* .rel.gnu.linkonce.r.*)
 *(.rel.data.rel.ro .rel.data.rel.ro.* .rel.gnu.linkonce.d.rel.ro.*)
 *(.rel.data .rel.data.* .rel.gnu.linkonce.d.*)
 *(.rel.tdata .rel.tdata.* .rel.gnu.linkonce.td.*)
 *(.rel.tbss .rel.tbss.* .rel.gnu.linkonce.tb.*)
 *(.rel.ctors)
 *(.rel.dtors)
 *(.rel.got)
 .rel.got       0x0000000000010c00        0x8 /opt/ti-processor-sdk-linux-rt-am57xx-evm-04.03.00.05/linux-devkit/sysroots/x86_64-arago-linux/usr/bin/../arm-linux-gnueabihf/libc/usr/lib/arm-linux-gnueabihf/6.2.1/crt1.o
 *(.rel.bss .rel.bss.* .rel.gnu.linkonce.b.*)
 .rel.bss       0x0000000000010c08        0x8 /opt/ti-processor-sdk-linux-rt-am57xx-evm-04.03.00.05/linux-devkit/sysroots/x86_64-arago-linux/usr/bin/../arm-linux-gnueabihf/libc/usr/lib/arm-linux-gnueabihf/6.2.1/crt1.o
                [!provide]                        PROVIDE (__rel_iplt_start, .)
 *(.rel.iplt)
 .rel.iplt      0x0000000000010c10        0x0 /opt/ti-processor-sdk-linux-rt-am57xx-evm-04.03.00.05/linux-devkit/sysroots/x86_64-arago-linux/usr/bin/../arm-linux-gnueabihf/libc/usr/lib/arm-linux-gnueabihf/6.2.1/crt1.o
                [!provide]                        PROVIDE (__rel_iplt_end, .)

.rela.dyn       0x0000000000010c10        0x0
 *(.rela.init)
 *(.rela.text .rela.text.* .rela.gnu.linkonce.t.*)
 *(.rela.fini)
 *(.rela.rodata .rela.rodata.* .rela.gnu.linkonce.r.*)
 *(.rela.data .rela.data.* .rela.gnu.linkonce.d.*)
 *(.rela.tdata .rela.tdata.* .rela.gnu.linkonce.td.*)
 *(.rela.tbss .rela.tbss.* .rela.gnu.linkonce.tb.*)
 *(.rela.ctors)
 *(.rela.dtors)
 *(.rela.got)
 *(.rela.bss .rela.bss.* .rela.gnu.linkonce.b.*)
                [!provide]                        PROVIDE (__rela_iplt_start, .)
 *(.rela.iplt)
                [!provide]                        PROVIDE (__rela_iplt_end, .)

.rel.plt        0x0000000000010c10      0x208
 *(.rel.plt)
 .rel.plt       0x0000000000010c10      0x208 /opt/ti-processor-sdk-linux-rt-am57xx-evm-04.03.00.05/linux-devkit/sysroots/x86_64-arago-linux/usr/bin/../arm-linux-gnueabihf/libc/usr/lib/arm-linux-gnueabihf/6.2.1/crt1.o

.rela.plt
 *(.rela.plt)

.init           0x0000000000010e18        0xc
 *(SORT(.init))
 .init          0x0000000000010e18        0x8 /opt/ti-processor-sdk-linux-rt-am57xx-evm-04.03.00.05/linux-devkit/sysroots/x86_64-arago-linux/usr/bin/../arm-linux-gnueabihf/libc/usr/lib/arm-linux-gnueabihf/6.2.1/crti.o
                0x0000000000010e18                _init
 .init          0x0000000000010e20        0x4 /opt/ti-processor-sdk-linux-rt-am57xx-evm-04.03.00.05/linux-devkit/sysroots/x86_64-arago-linux/usr/bin/../arm-linux-gnueabihf/libc/usr/lib/arm-linux-gnueabihf/6.2.1/crtn.o

.plt            0x0000000000010e24      0x33c
 *(.plt)
 .plt           0x0000000000010e24      0x33c /opt/ti-processor-sdk-linux-rt-am57xx-evm-04.03.00.05/linux-devkit/sysroots/x86_64-arago-linux/usr/bin/../arm-linux-gnueabihf/libc/usr/lib/arm-linux-gnueabihf/6.2.1/crt1.o
                0x0000000000010e3c                pthread_mutex_unlock@@GLIBC_2.4
                0x0000000000010e48                calloc@@GLIBC_2.4
                0x0000000000010e54                sem_wait@@GLIBC_2.4
                0x0000000000010e60                pthread_mutexattr_init@@GLIBC_2.4
                0x0000000000010e6c                strcmp@@GLIBC_2.4
                0x0000000000010e7c                sem_post@@GLIBC_2.4
                0x0000000000010e8c                printf@@GLIBC_2.4
                0x0000000000010e98                fopen@@GLIBC_2.4
                0x0000000000010ea4                read@@GLIBC_2.4
                0x0000000000010eb0                pthread_mutex_destroy@@GLIBC_2.4
                0x0000000000010ebc                fflush@@GLIBC_2.4
                0x0000000000010ecc                free@@GLIBC_2.4
                0x0000000000010ed8                pthread_mutex_lock@@GLIBC_2.4
                0x0000000000010ee4                pthread_self@@GLIBC_2.4
                0x0000000000010ef4                memcpy@@GLIBC_2.4
                0x0000000000010f00                pthread_mutex_init@@GLIBC_2.4
                0x0000000000010f0c                signal@@GLIBC_2.4
                0x0000000000010f18                time@@GLIBC_2.4
                0x0000000000010f24                pthread_mutex_trylock@@GLIBC_2.4
                0x0000000000010f30                select@@GLIBC_2.4
                0x0000000000010f3c                sleep@@GLIBC_2.4
                0x0000000000010f48                recvfrom@@GLIBC_2.4
                0x0000000000010f54                __xstat@@GLIBC_2.4
                0x0000000000010f60                fwrite@@GLIBC_2.4
                0x0000000000010f6c                ioctl@@GLIBC_2.4
                0x0000000000010f78                usleep@@GLIBC_2.4
                0x0000000000010f84                strcpy@@GLIBC_2.4
                0x0000000000010f90                gettimeofday@@GLIBC_2.4
                0x0000000000010f9c                fread@@GLIBC_2.4
                0x0000000000010fa8                pthread_create@@GLIBC_2.4
                0x0000000000010fb4                getenv@@GLIBC_2.4
                0x0000000000010fc0                puts@@GLIBC_2.4
                0x0000000000010fd0                malloc@@GLIBC_2.4
                0x0000000000010fdc                __libc_start_main@@GLIBC_2.4
                0x0000000000010fe8                strerror@@GLIBC_2.4
                0x0000000000011000                open@@GLIBC_2.4
                0x000000000001100c                pthread_mutexattr_settype@@GLIBC_2.4
                0x0000000000011018                getpid@@GLIBC_2.4
                0x0000000000011024                exit@@GLIBC_2.4
                0x0000000000011030                sem_timedwait@@GLIBC_2.4
                0x000000000001103c                strtoul@@GLIBC_2.4
                0x0000000000011048                mmap@@GLIBC_2.4
                0x0000000000011058                fprintf@@GLIBC_2.4
                0x0000000000011064                fcntl@@GLIBC_2.4
                0x0000000000011070                __errno_location@@GLIBC_2.4
                0x000000000001107c                bind@@GLIBC_2.4
                0x0000000000011088                sem_init@@GLIBC_2.4
                0x0000000000011094                memset@@GLIBC_2.4
                0x00000000000110a0                strncpy@@GLIBC_2.4
                0x00000000000110ac                write@@GLIBC_2.4
                0x00000000000110b8                fileno@@GLIBC_2.4
                0x00000000000110c4                difftime@@GLIBC_2.4
                0x00000000000110d0                fclose@@GLIBC_2.4
                0x00000000000110dc                munmap@@GLIBC_2.4
                0x00000000000110e8                pthread_join@@GLIBC_2.4
                0x00000000000110f4                sprintf@@GLIBC_2.4
                0x0000000000011100                getsockname@@GLIBC_2.4
                0x000000000001110c                socket@@GLIBC_2.4
                0x0000000000011118                eventfd@@GLIBC_2.7
                0x0000000000011124                abort@@GLIBC_2.4
                0x0000000000011130                close@@GLIBC_2.4
                0x000000000001113c                send@@GLIBC_2.4
                0x0000000000011148                connect@@GLIBC_2.4
                0x0000000000011154                __assert_fail@@GLIBC_2.4

.iplt           0x0000000000011160        0x0
 *(.iplt)
 .iplt          0x0000000000011160        0x0 /opt/ti-processor-sdk-linux-rt-am57xx-evm-04.03.00.05/linux-devkit/sysroots/x86_64-arago-linux/usr/bin/../arm-linux-gnueabihf/libc/usr/lib/arm-linux-gnueabihf/6.2.1/crt1.o

.text           0x0000000000011160     0x5404
 *(.text.unlikely .text.*_unlikely .text.unlikely.*)
 *(.text.exit .text.exit.*)
 *(.text.startup .text.startup.*)
 *(.text.hot .text.hot.*)
 *(.text .stub .text.* .gnu.linkonce.t.*)
 .text          0x0000000000011160       0x30 /opt/ti-processor-sdk-linux-rt-am57xx-evm-04.03.00.05/linux-devkit/sysroots/x86_64-arago-linux/usr/bin/../arm-linux-gnueabihf/libc/usr/lib/arm-linux-gnueabihf/6.2.1/crt1.o
                0x0000000000011160                _start
 .text          0x0000000000011190       0x24 /opt/ti-processor-sdk-linux-rt-am57xx-evm-04.03.00.05/linux-devkit/sysroots/x86_64-arago-linux/usr/bin/../arm-linux-gnueabihf/libc/usr/lib/arm-linux-gnueabihf/6.2.1/crti.o
 .text          0x00000000000111b4       0x8c /opt/ti-processor-sdk-linux-rt-am57xx-evm-04.03.00.05/linux-devkit/sysroots/x86_64-arago-linux/usr/bin/../lib/gcc/arm-linux-gnueabihf/6.2.1/crtbegin.o
 .text          0x0000000000011240      0x350 bin/debug/obj/main_host.ov7A
                0x0000000000011240                main
 .text          0x0000000000011590      0x488 bin/debug/obj/App.ov7A
                0x00000000000115ae                App_create
                0x00000000000116cc                App_delete
                0x0000000000011728                App_exec
 .text          0x0000000000011a18      0xe0c /opt/ti/ipc_3_47_01_00/linux/src/transport/.libs/libtitransportrpmsg.a(TransportRpmsg.o)
                0x0000000000011a18                TransportRpmsg_unbind
                0x0000000000011bb4                TransportRpmsg_put
                0x00000000000120b0                TransportRpmsg_Factory_delete
                0x000000000001213c                TransportRpmsg_Factory_create
                0x0000000000012350                TransportRpmsg_bind
                0x00000000000125b0                TransportRpmsg_upCast
                0x00000000000125b4                TransportRpmsg_downCast
                0x00000000000125b8                TransportRpmsg_delete
                0x0000000000012624                TransportRpmsg_create
                0x0000000000012764                TransportRpmsg_Factory_attach
                0x00000000000127c0                TransportRpmsg_Factory_detach
                0x0000000000012820                TransportRpmsg_control
 .text          0x0000000000012824     0x1038 /opt/ti/ipc_3_47_01_00/linux/src/api/.libs/libtiipc.a(MessageQ.o)
                0x0000000000012824                MessageQ_registerTransport
                0x0000000000012894                MessageQ_registerTransportId
                0x0000000000012910                MessageQ_unregisterTransport
                0x0000000000012958                MessageQ_unregisterTransportId
                0x000000000001298c                MessageQ_getConfig
                0x0000000000012a6c                MessageQ_setup
                0x0000000000012be8                MessageQ_destroy
                0x0000000000012d38                MessageQ_Params_init
                0x0000000000012d40                MessageQ_Params_init(void) static
                0x0000000000012d74                MessageQ_delete
                0x0000000000012f08                MessageQ_open
                0x0000000000012f4c                MessageQ_openQueueId
                0x0000000000012f58                MessageQ_close
                0x0000000000012f64                MessageQ_put
                0x00000000000130a4                MessageQ_get
                0x00000000000131a4                MessageQ_count
                0x00000000000131ac                MessageQ_free
                0x00000000000131f4                MessageQ_registerHeap
                0x0000000000013248                MessageQ_unregisterHeap
                0x0000000000013290                MessageQ_unblock
                0x00000000000132a0                MessageQ_shutdown
                0x00000000000132b0                MessageQ_setReplyQueue
                0x00000000000132bc                MessageQ_getQueueId
                0x00000000000132c0                MessageQ_getLocalHandle
                0x00000000000132e8                MessageQ_setMsgTrace
                0x00000000000132f8                MessageQ_sharedMemReq
                0x00000000000132fc                MessageQ_msgInit
                0x0000000000013344                MessageQ_staticMsgInit
                0x0000000000013358                MessageQ_alloc
                0x00000000000133d4                _MessageQ_grow
                0x000000000001341c                MessageQ_create
                0x0000000000013774                MessageQ_bind
                0x00000000000137dc                MessageQ_unbind
 .text          0x000000000001385c      0xcb0 /opt/ti/ipc_3_47_01_00/linux/src/api/.libs/libtiipc.a(NameServer.o)
                0x000000000001385c                NameServer_setup
                0x0000000000013924                NameServer_destroy
                0x00000000000139ec                NameServer_Params_init
                0x0000000000013aa4                NameServer_create
                0x0000000000013b70                NameServer_add
                0x0000000000013c44                NameServer_get
                0x0000000000013d60                NameServer_addUInt32
                0x0000000000013e20                NameServer_getUInt32
                0x0000000000013f34                NameServer_getLocal
                0x0000000000014028                NameServer_getLocalUInt32
                0x0000000000014100                NameServer_remove
                0x00000000000141d8                NameServer_removeEntry
                0x00000000000142a8                NameServer_delete
                0x000000000001437c                NameServer_attach
                0x0000000000014444                NameServer_detach
 .text          0x000000000001450c      0x6e8 /opt/ti/ipc_3_47_01_00/linux/src/api/.libs/libtiipc.a(Ipc.o)
                0x000000000001453c                Ipc_transportConfig
                0x0000000000014578                Ipc_attach
                0x0000000000014640                Ipc_detach
                0x000000000001470c                Ipc_stop
                0x0000000000014824                Ipc_isAttached
                0x000000000001483c                Ipc_getConfig
                0x00000000000148d4                Ipc_start
 .text          0x0000000000014bf4       0x24 /opt/ti/ipc_3_47_01_00/linux/src/api/.libs/libtiipc.a(HeapStd.o)
                0x0000000000014bf4                HeapStd_alloc
                0x0000000000014bfc                HeapStd_free
                0x0000000000014c04                HeapStd_handle
                0x0000000000014c10                HeapStd_upCast
                0x0000000000014c14                HeapStd_downCast
 .text          0x0000000000014c18      0xae8 /opt/ti/ipc_3_47_01_00/linux/src/api/.libs/libtiipc.a(GateMP.o)
                0x0000000000014f28                GateMP_attach
                0x0000000000014ff0                GateMP_detach
                0x00000000000150b8                GateMP_Params_init
                0x00000000000150f4                GateMP_create
                0x0000000000015144                GateMP_open
                0x0000000000015320                GateMP_getDefaultRemote
                0x000000000001532c                GateMP_getLocalProtect
                0x0000000000015330                GateMP_getRemoteProtect
                0x0000000000015334                GateMP_isSetup
                0x0000000000015414                GateMP_delete
                0x0000000000015498                GateMP_close
                0x00000000000154d8                GateMP_stop
                0x000000000001551c                GateMP_start
                0x00000000000156e0                GateMP_enter
                0x00000000000156f0                GateMP_leave
 .text          0x0000000000015700      0x3f8 /opt/ti/ipc_3_47_01_00/linux/src/api/.libs/libtiipc.a(GateHWSpinlock.o)
                0x0000000000015700                GateHWSpinlock_leave
                0x000000000001574c                GateHWSpinlock_enter
                0x00000000000157fc                GateHWSpinlock_getConfig
                0x00000000000158e4                GateHWSpinlock_stop
                0x0000000000015928                GateHWSpinlock_start
                0x0000000000015a50                GateHWSpinlock_Params_init
                0x0000000000015a84                GateHWSpinlock_create
                0x0000000000015adc                GateHWSpinlock_delete
 .text          0x0000000000015af8       0xd8 /opt/ti/ipc_3_47_01_00/linux/src/api/.libs/libtiipc.a(MultiProc.o)
                0x0000000000015af8                MultiProc_getConfig
 .text          0x0000000000015bd0       0xbc /opt/ti/ipc_3_47_01_00/linux/src/api/.libs/libtiipc.a(GateMutex.o)
                0x0000000000015bd0                GateMutex_enter
                0x0000000000015bfc                GateMutex_leave
                0x0000000000015c24                GateMutex_create
                0x0000000000015c68                GateMutex_delete
 *fill*         0x0000000000015c8c        0x4 
 .text          0x0000000000015c90      0x5b8 /opt/ti/ipc_3_47_01_00/linux/src/utils/.libs/libtiipcutils.a(LAD_client.o)
                0x0000000000015c90                LAD_findHandle
                0x0000000000015cbc                LAD_getResponse
                0x0000000000015d40                LAD_putCommand
                0x0000000000015de0                LAD_connect
                0x0000000000016168                LAD_disconnect
 .text          0x0000000000016248      0x120 /opt/ti/ipc_3_47_01_00/linux/src/utils/.libs/libtiipcutils.a(MultiProc.o)
                0x0000000000016248                MultiProc_getBaseIdOfCluster
                0x0000000000016258                MultiProc_getId
                0x00000000000162bc                MultiProc_getName
                0x00000000000162f8                MultiProc_getNumProcessors
                0x0000000000016304                MultiProc_getNumProcsInCluster
                0x0000000000016314                MultiProc_self
                0x0000000000016324                MultiProc_setLocalId
 .text          0x0000000000016368       0x14 /opt/ti/ipc_3_47_01_00/linux/src/utils/.libs/libtiipcutils.a(MultiProc_app.o)
                0x0000000000016368                _MultiProc_initCfg
 .text          0x000000000001637c      0x1a4 /opt/ti/ipc_3_47_01_00/linux/src/utils/.libs/libtiipcutils.a(SocketFxns.o)
                0x000000000001637c                ConnectSocket
                0x000000000001646c                SocketBindAddr
 .text          0x0000000000016520       0x44 /opt/ti-processor-sdk-linux-rt-am57xx-evm-04.03.00.05/linux-devkit/sysroots/x86_64-arago-linux/usr/bin/../arm-linux-gnueabihf/libc/usr/lib/arm-linux-gnueabihf/6.2.1/./libc_nonshared.a(elf-init.oS)
                0x0000000000016520                __libc_csu_init
                0x0000000000016560                __libc_csu_fini
 .text          0x0000000000016564        0x0 /opt/ti-processor-sdk-linux-rt-am57xx-evm-04.03.00.05/linux-devkit/sysroots/x86_64-arago-linux/usr/bin/../lib/gcc/arm-linux-gnueabihf/6.2.1/crtend.o
 .text          0x0000000000016564        0x0 /opt/ti-processor-sdk-linux-rt-am57xx-evm-04.03.00.05/linux-devkit/sysroots/x86_64-arago-linux/usr/bin/../arm-linux-gnueabihf/libc/usr/lib/arm-linux-gnueabihf/6.2.1/crtn.o
 *(.gnu.warning)
 *(.glue_7t)
 .glue_7t       0x0000000000016564        0x0 linker stubs
 *(.glue_7)
 .glue_7        0x0000000000016564        0x0 linker stubs
 *(.vfp11_veneer)
 .vfp11_veneer  0x0000000000016564        0x0 linker stubs
 *(.v4_bx)
 .v4_bx         0x0000000000016564        0x0 linker stubs

.fini           0x0000000000016564        0x8
 *(SORT(.fini))
 .fini          0x0000000000016564        0x4 /opt/ti-processor-sdk-linux-rt-am57xx-evm-04.03.00.05/linux-devkit/sysroots/x86_64-arago-linux/usr/bin/../arm-linux-gnueabihf/libc/usr/lib/arm-linux-gnueabihf/6.2.1/crti.o
                0x0000000000016564                _fini
 .fini          0x0000000000016568        0x4 /opt/ti-processor-sdk-linux-rt-am57xx-evm-04.03.00.05/linux-devkit/sysroots/x86_64-arago-linux/usr/bin/../arm-linux-gnueabihf/libc/usr/lib/arm-linux-gnueabihf/6.2.1/crtn.o
                [!provide]                        PROVIDE (__etext, .)
                [!provide]                        PROVIDE (_etext, .)
                [!provide]                        PROVIDE (etext, .)

.rodata         0x000000000001656c     0x3720
 *(.rodata .rodata.* .gnu.linkonce.r.*)
 .rodata.cst4   0x000000000001656c        0x4 /opt/ti-processor-sdk-linux-rt-am57xx-evm-04.03.00.05/linux-devkit/sysroots/x86_64-arago-linux/usr/bin/../arm-linux-gnueabihf/libc/usr/lib/arm-linux-gnueabihf/6.2.1/crt1.o
                0x000000000001656c                _IO_stdin_used
 .rodata        0x0000000000016570      0x2a9 bin/debug/obj/main_host.ov7A
 *fill*         0x0000000000016819        0x3 
 .rodata        0x000000000001681c      0x27a bin/debug/obj/App.ov7A
 *fill*         0x0000000000016a96        0x2 
 .rodata.str1.4
                0x0000000000016a98      0x6db /opt/ti/ipc_3_47_01_00/linux/src/transport/.libs/libtitransportrpmsg.a(TransportRpmsg.o)
 *fill*         0x0000000000017173        0x1 
 .rodata        0x0000000000017174       0x3c /opt/ti/ipc_3_47_01_00/linux/src/api/.libs/libtiipc.a(MessageQ.o)
 .rodata.str1.4
                0x00000000000171b0      0x924 /opt/ti/ipc_3_47_01_00/linux/src/api/.libs/libtiipc.a(MessageQ.o)
                                        0x92c (size before relaxing)
 .rodata.str1.4
                0x0000000000017ad4      0xd20 /opt/ti/ipc_3_47_01_00/linux/src/api/.libs/libtiipc.a(NameServer.o)
 .rodata.str1.4
                0x00000000000187f4      0x29c /opt/ti/ipc_3_47_01_00/linux/src/api/.libs/libtiipc.a(Ipc.o)
 .rodata        0x0000000000018a90        0xf /opt/ti/ipc_3_47_01_00/linux/src/api/.libs/libtiipc.a(GateMP.o)
 *fill*         0x0000000000018a9f        0x1 
 .rodata.str1.4
                0x0000000000018aa0      0x95d /opt/ti/ipc_3_47_01_00/linux/src/api/.libs/libtiipc.a(GateMP.o)
 *fill*         0x00000000000193fd        0x3 
 .rodata        0x0000000000019400       0x37 /opt/ti/ipc_3_47_01_00/linux/src/api/.libs/libtiipc.a(GateHWSpinlock.o)
 *fill*         0x0000000000019437        0x1 
 .rodata.str1.4
                0x0000000000019438      0x23d /opt/ti/ipc_3_47_01_00/linux/src/api/.libs/libtiipc.a(GateHWSpinlock.o)
                                        0x241 (size before relaxing)
 *fill*         0x0000000000019675        0x3 
 .rodata        0x0000000000019678       0x14 /opt/ti/ipc_3_47_01_00/linux/src/api/.libs/libtiipc.a(MultiProc.o)
 .rodata.str1.4
                0x000000000001968c      0x100 /opt/ti/ipc_3_47_01_00/linux/src/api/.libs/libtiipc.a(MultiProc.o)
                                        0x10c (size before relaxing)
 .rodata        0x000000000001978c       0x20 /opt/ti/ipc_3_47_01_00/linux/src/api/.libs/libtiipc.a(GateMutex.o)
 .rodata.str1.4
                0x00000000000197ac       0x35 /opt/ti/ipc_3_47_01_00/linux/src/api/.libs/libtiipc.a(GateMutex.o)
 *fill*         0x00000000000197e1        0x3 
 .rodata.str1.4
                0x00000000000197e4      0x306 /opt/ti/ipc_3_47_01_00/linux/src/utils/.libs/libtiipcutils.a(LAD_client.o)
                                        0x30a (size before relaxing)
 *fill*         0x0000000000019aea        0x2 
 .rodata        0x0000000000019aec       0x39 /opt/ti/ipc_3_47_01_00/linux/src/utils/.libs/libtiipcutils.a(MultiProc.o)
 *fill*         0x0000000000019b25        0x3 
 .rodata.str1.4
                0x0000000000019b28       0x5e /opt/ti/ipc_3_47_01_00/linux/src/utils/.libs/libtiipcutils.a(MultiProc.o)
 *fill*         0x0000000000019b86        0x2 
 .rodata.str1.4
                0x0000000000019b88      0x104 /opt/ti/ipc_3_47_01_00/linux/src/utils/.libs/libtiipcutils.a(SocketFxns.o)
                                        0x101 (size before relaxing)

.rodata1
 *(.rodata1)

.ARM.extab      0x0000000000019c8c        0x0
 *(.ARM.extab* .gnu.linkonce.armextab.*)
 .ARM.extab     0x0000000000019c8c        0x0 /opt/ti-processor-sdk-linux-rt-am57xx-evm-04.03.00.05/linux-devkit/sysroots/x86_64-arago-linux/usr/bin/../arm-linux-gnueabihf/libc/usr/lib/arm-linux-gnueabihf/6.2.1/crt1.o
                [!provide]                        PROVIDE (__exidx_start, .)

.ARM.exidx      0x0000000000019c8c        0x8
 *(.ARM.exidx* .gnu.linkonce.armexidx.*)
 .ARM.exidx     0x0000000000019c8c        0x8 /opt/ti-processor-sdk-linux-rt-am57xx-evm-04.03.00.05/linux-devkit/sysroots/x86_64-arago-linux/usr/bin/../arm-linux-gnueabihf/libc/usr/lib/arm-linux-gnueabihf/6.2.1/crt1.o
                [!provide]                        PROVIDE (__exidx_end, .)

.eh_frame_hdr
 *(.eh_frame_hdr)
 *(.eh_frame_entry .eh_frame_entry.*)

.eh_frame       0x0000000000019c94        0x4
 *(.eh_frame)
 .eh_frame      0x0000000000019c94        0x4 /opt/ti-processor-sdk-linux-rt-am57xx-evm-04.03.00.05/linux-devkit/sysroots/x86_64-arago-linux/usr/bin/../lib/gcc/arm-linux-gnueabihf/6.2.1/crtend.o
 *(.eh_frame.*)

.gcc_except_table
 *(.gcc_except_table .gcc_except_table.*)

.gnu_extab
 *(.gnu_extab*)

.exception_ranges
 *(.exception_ranges .exception_ranges*)
                0x000000000002a000                . = DATA_SEGMENT_ALIGN (0x10000, 0x1000)

.eh_frame
 *(.eh_frame)
 *(.eh_frame.*)

.gnu_extab
 *(.gnu_extab)

.gcc_except_table
 *(.gcc_except_table .gcc_except_table.*)

.exception_ranges
 *(.exception_ranges .exception_ranges*)

.tdata
 *(.tdata .tdata.* .gnu.linkonce.td.*)

.tbss
 *(.tbss .tbss.* .gnu.linkonce.tb.*)
 *(.tcommon)

.preinit_array  0x000000000002a000        0x0
                [!provide]                        PROVIDE (__preinit_array_start, .)
 *(.preinit_array)
                [!provide]                        PROVIDE (__preinit_array_end, .)

.init_array     0x000000000002a000        0x4
                0x000000000002a000                PROVIDE (__init_array_start, .)
 *(SORT(.init_array.*) SORT(.ctors.*))
 *(.init_array EXCLUDE_FILE(*crtend?.o *crtend.o *crtbegin?.o *crtbegin.o) .ctors)
 .init_array    0x000000000002a000        0x4 /opt/ti-processor-sdk-linux-rt-am57xx-evm-04.03.00.05/linux-devkit/sysroots/x86_64-arago-linux/usr/bin/../lib/gcc/arm-linux-gnueabihf/6.2.1/crtbegin.o
                0x000000000002a004                PROVIDE (__init_array_end, .)

.fini_array     0x000000000002a004        0x4
                [!provide]                        PROVIDE (__fini_array_start, .)
 *(SORT(.fini_array.*) SORT(.dtors.*))
 *(.fini_array EXCLUDE_FILE(*crtend?.o *crtend.o *crtbegin?.o *crtbegin.o) .dtors)
 .fini_array    0x000000000002a004        0x4 /opt/ti-processor-sdk-linux-rt-am57xx-evm-04.03.00.05/linux-devkit/sysroots/x86_64-arago-linux/usr/bin/../lib/gcc/arm-linux-gnueabihf/6.2.1/crtbegin.o
                [!provide]                        PROVIDE (__fini_array_end, .)

.ctors
 *crtbegin.o(.ctors)
 *crtbegin?.o(.ctors)
 *(EXCLUDE_FILE(*crtend?.o *crtend.o) .ctors)
 *(SORT(.ctors.*))
 *(.ctors)

.dtors
 *crtbegin.o(.dtors)
 *crtbegin?.o(.dtors)
 *(EXCLUDE_FILE(*crtend?.o *crtend.o) .dtors)
 *(SORT(.dtors.*))
 *(.dtors)

.jcr            0x000000000002a008        0x4
 *(.jcr)
 .jcr           0x000000000002a008        0x0 /opt/ti-processor-sdk-linux-rt-am57xx-evm-04.03.00.05/linux-devkit/sysroots/x86_64-arago-linux/usr/bin/../lib/gcc/arm-linux-gnueabihf/6.2.1/crtbegin.o
 .jcr           0x000000000002a008        0x4 /opt/ti-processor-sdk-linux-rt-am57xx-evm-04.03.00.05/linux-devkit/sysroots/x86_64-arago-linux/usr/bin/../lib/gcc/arm-linux-gnueabihf/6.2.1/crtend.o

.data.rel.ro
 *(.data.rel.ro.local* .gnu.linkonce.d.rel.ro.local.*)
 *(.data.rel.ro .data.rel.ro.* .gnu.linkonce.d.rel.ro.*)

.dynamic        0x000000000002a00c       0xf8
 *(.dynamic)
 .dynamic       0x000000000002a00c       0xf8 /opt/ti-processor-sdk-linux-rt-am57xx-evm-04.03.00.05/linux-devkit/sysroots/x86_64-arago-linux/usr/bin/../arm-linux-gnueabihf/libc/usr/lib/arm-linux-gnueabihf/6.2.1/crt1.o
                0x000000000002a00c                _DYNAMIC
                0x000000000002a104                . = DATA_SEGMENT_RELRO_END (., 0x0)

.got            0x000000000002a104      0x118
 *(.got.plt)
 .got.plt       0x000000000002a104      0x110 /opt/ti-processor-sdk-linux-rt-am57xx-evm-04.03.00.05/linux-devkit/sysroots/x86_64-arago-linux/usr/bin/../arm-linux-gnueabihf/libc/usr/lib/arm-linux-gnueabihf/6.2.1/crt1.o
                0x000000000002a104                _GLOBAL_OFFSET_TABLE_
 *(.igot.plt)
 .igot.plt      0x000000000002a214        0x0 /opt/ti-processor-sdk-linux-rt-am57xx-evm-04.03.00.05/linux-devkit/sysroots/x86_64-arago-linux/usr/bin/../arm-linux-gnueabihf/libc/usr/lib/arm-linux-gnueabihf/6.2.1/crt1.o
 *(.got)
 .got           0x000000000002a214        0x8 /opt/ti-processor-sdk-linux-rt-am57xx-evm-04.03.00.05/linux-devkit/sysroots/x86_64-arago-linux/usr/bin/../arm-linux-gnueabihf/libc/usr/lib/arm-linux-gnueabihf/6.2.1/crt1.o
 *(.igot)

.data           0x000000000002a21c     0x2260
                [!provide]                        PROVIDE (__data_start, .)
 *(.data .data.* .gnu.linkonce.d.*)
 .data          0x000000000002a21c        0x4 /opt/ti-processor-sdk-linux-rt-am57xx-evm-04.03.00.05/linux-devkit/sysroots/x86_64-arago-linux/usr/bin/../arm-linux-gnueabihf/libc/usr/lib/arm-linux-gnueabihf/6.2.1/crt1.o
                0x000000000002a21c                data_start
                0x000000000002a21c                __data_start
 .data          0x000000000002a220        0x0 /opt/ti-processor-sdk-linux-rt-am57xx-evm-04.03.00.05/linux-devkit/sysroots/x86_64-arago-linux/usr/bin/../arm-linux-gnueabihf/libc/usr/lib/arm-linux-gnueabihf/6.2.1/crti.o
 .data          0x000000000002a220        0x4 /opt/ti-processor-sdk-linux-rt-am57xx-evm-04.03.00.05/linux-devkit/sysroots/x86_64-arago-linux/usr/bin/../lib/gcc/arm-linux-gnueabihf/6.2.1/crtbegin.o
                0x000000000002a220                __dso_handle
 .data          0x000000000002a224        0x0 bin/debug/obj/main_host.ov7A
 .data          0x000000000002a224        0x0 bin/debug/obj/App.ov7A
 .data          0x000000000002a224     0x20fc /opt/ti/ipc_3_47_01_00/linux/src/transport/.libs/libtitransportrpmsg.a(TransportRpmsg.o)
                0x000000000002a224                TransportRpmsg_module
                0x000000000002a228                TransportRpmsg_fxns
                0x000000000002a234                TransportRpmsg_Factory
                0x000000000002a244                TransportRpmsg_state
 .data          0x000000000002c320       0xc4 /opt/ti/ipc_3_47_01_00/linux/src/api/.libs/libtiipc.a(MessageQ.o)
                0x000000000002c320                MessageQ_module
 .data          0x000000000002c3e4        0x0 /opt/ti/ipc_3_47_01_00/linux/src/api/.libs/libtiipc.a(NameServer.o)
 .data          0x000000000002c3e4       0x50 /opt/ti/ipc_3_47_01_00/linux/src/api/.libs/libtiipc.a(Ipc.o)
 .data          0x000000000002c434        0xc /opt/ti/ipc_3_47_01_00/linux/src/api/.libs/libtiipc.a(HeapStd.o)
                0x000000000002c438                HeapStd_Fxns
 .data          0x000000000002c440       0x14 /opt/ti/ipc_3_47_01_00/linux/src/api/.libs/libtiipc.a(GateMP.o)
 .data          0x000000000002c454       0x10 /opt/ti/ipc_3_47_01_00/linux/src/api/.libs/libtiipc.a(GateHWSpinlock.o)
 .data          0x000000000002c464        0x0 /opt/ti/ipc_3_47_01_00/linux/src/api/.libs/libtiipc.a(MultiProc.o)
 .data          0x000000000002c464        0x0 /opt/ti/ipc_3_47_01_00/linux/src/api/.libs/libtiipc.a(GateMutex.o)
 .data          0x000000000002c464       0x18 /opt/ti/ipc_3_47_01_00/linux/src/utils/.libs/libtiipcutils.a(LAD_client.o)
 .data          0x000000000002c47c        0x0 /opt/ti/ipc_3_47_01_00/linux/src/utils/.libs/libtiipcutils.a(MultiProc.o)
 .data          0x000000000002c47c        0x0 /opt/ti/ipc_3_47_01_00/linux/src/utils/.libs/libtiipcutils.a(MultiProc_app.o)
 .data          0x000000000002c47c        0x0 /opt/ti/ipc_3_47_01_00/linux/src/utils/.libs/libtiipcutils.a(SocketFxns.o)
 .data          0x000000000002c47c        0x0 /opt/ti-processor-sdk-linux-rt-am57xx-evm-04.03.00.05/linux-devkit/sysroots/x86_64-arago-linux/usr/bin/../arm-linux-gnueabihf/libc/usr/lib/arm-linux-gnueabihf/6.2.1/./libc_nonshared.a(elf-init.oS)
 .data          0x000000000002c47c        0x0 /opt/ti-processor-sdk-linux-rt-am57xx-evm-04.03.00.05/linux-devkit/sysroots/x86_64-arago-linux/usr/bin/../lib/gcc/arm-linux-gnueabihf/6.2.1/crtend.o
 .data          0x000000000002c47c        0x0 /opt/ti-processor-sdk-linux-rt-am57xx-evm-04.03.00.05/linux-devkit/sysroots/x86_64-arago-linux/usr/bin/../arm-linux-gnueabihf/libc/usr/lib/arm-linux-gnueabihf/6.2.1/crtn.o

.tm_clone_table
                0x000000000002c47c        0x0
 .tm_clone_table
                0x000000000002c47c        0x0 /opt/ti-processor-sdk-linux-rt-am57xx-evm-04.03.00.05/linux-devkit/sysroots/x86_64-arago-linux/usr/bin/../lib/gcc/arm-linux-gnueabihf/6.2.1/crtbegin.o
 .tm_clone_table
                0x000000000002c47c        0x0 /opt/ti-processor-sdk-linux-rt-am57xx-evm-04.03.00.05/linux-devkit/sysroots/x86_64-arago-linux/usr/bin/../lib/gcc/arm-linux-gnueabihf/6.2.1/crtend.o

.data1
 *(.data1)
                0x000000000002c47c                _edata = .
                [!provide]                        PROVIDE (edata, .)
                0x000000000002c47c                . = .
                0x000000000002c47c                __bss_start = .
                0x000000000002c47c                __bss_start__ = .

.bss            0x000000000002c480     0x138c
 *(.dynbss)
 *fill*         0x000000000002c480        0x0 
 .dynbss        0x000000000002c480        0x4 /opt/ti-processor-sdk-linux-rt-am57xx-evm-04.03.00.05/linux-devkit/sysroots/x86_64-arago-linux/usr/bin/../arm-linux-gnueabihf/libc/usr/lib/arm-linux-gnueabihf/6.2.1/crt1.o
                0x000000000002c480                stderr@@GLIBC_2.4
 *(.bss .bss.* .gnu.linkonce.b.*)
 .bss           0x000000000002c484        0x0 /opt/ti-processor-sdk-linux-rt-am57xx-evm-04.03.00.05/linux-devkit/sysroots/x86_64-arago-linux/usr/bin/../arm-linux-gnueabihf/libc/usr/lib/arm-linux-gnueabihf/6.2.1/crt1.o
 .bss           0x000000000002c484        0x0 /opt/ti-processor-sdk-linux-rt-am57xx-evm-04.03.00.05/linux-devkit/sysroots/x86_64-arago-linux/usr/bin/../arm-linux-gnueabihf/libc/usr/lib/arm-linux-gnueabihf/6.2.1/crti.o
 .bss           0x000000000002c484        0x1 /opt/ti-processor-sdk-linux-rt-am57xx-evm-04.03.00.05/linux-devkit/sysroots/x86_64-arago-linux/usr/bin/../lib/gcc/arm-linux-gnueabihf/6.2.1/crtbegin.o
 *fill*         0x000000000002c485        0x3 
 .bss           0x000000000002c488        0x4 bin/debug/obj/main_host.ov7A
 .bss           0x000000000002c48c       0x10 bin/debug/obj/App.ov7A
 .bss           0x000000000002c49c        0x1 /opt/ti/ipc_3_47_01_00/linux/src/transport/.libs/libtitransportrpmsg.a(TransportRpmsg.o)
                0x000000000002c49c                _TransportMessageQ_verbose
 .bss           0x000000000002c49d        0x1 /opt/ti/ipc_3_47_01_00/linux/src/api/.libs/libtiipc.a(MessageQ.o)
                0x000000000002c49d                _MessageQ_verbose
 .bss           0x000000000002c49e        0x1 /opt/ti/ipc_3_47_01_00/linux/src/api/.libs/libtiipc.a(NameServer.o)
                0x000000000002c49e                _NameServer_verbose
 *fill*         0x000000000002c49f        0x1 
 .bss           0x000000000002c4a0        0x8 /opt/ti/ipc_3_47_01_00/linux/src/api/.libs/libtiipc.a(Ipc.o)
                0x000000000002c4a0                _Ipc_verbose
 .bss           0x000000000002c4a8        0x0 /opt/ti/ipc_3_47_01_00/linux/src/api/.libs/libtiipc.a(HeapStd.o)
 .bss           0x000000000002c4a8       0x44 /opt/ti/ipc_3_47_01_00/linux/src/api/.libs/libtiipc.a(GateMP.o)
                0x000000000002c4a8                _GateMP_verbose
 .bss           0x000000000002c4ec       0x10 /opt/ti/ipc_3_47_01_00/linux/src/api/.libs/libtiipc.a(GateHWSpinlock.o)
                0x000000000002c4ec                _GateHWSpinlock_verbose
 .bss           0x000000000002c4fc        0x1 /opt/ti/ipc_3_47_01_00/linux/src/api/.libs/libtiipc.a(MultiProc.o)
                0x000000000002c4fc                _MultiProc_verbose
 .bss           0x000000000002c4fd        0x0 /opt/ti/ipc_3_47_01_00/linux/src/api/.libs/libtiipc.a(GateMutex.o)
 *fill*         0x000000000002c4fd        0x3 
 .bss           0x000000000002c500     0x1189 /opt/ti/ipc_3_47_01_00/linux/src/utils/.libs/libtiipcutils.a(LAD_client.o)
                0x000000000002d680                _LAD_Client_verbose
 .bss           0x000000000002d689        0x0 /opt/ti/ipc_3_47_01_00/linux/src/utils/.libs/libtiipcutils.a(MultiProc.o)
 .bss           0x000000000002d689        0x0 /opt/ti/ipc_3_47_01_00/linux/src/utils/.libs/libtiipcutils.a(MultiProc_app.o)
 .bss           0x000000000002d689        0x1 /opt/ti/ipc_3_47_01_00/linux/src/utils/.libs/libtiipcutils.a(SocketFxns.o)
                0x000000000002d689                _SocketFxns_verbose
 .bss           0x000000000002d68a        0x0 /opt/ti-processor-sdk-linux-rt-am57xx-evm-04.03.00.05/linux-devkit/sysroots/x86_64-arago-linux/usr/bin/../arm-linux-gnueabihf/libc/usr/lib/arm-linux-gnueabihf/6.2.1/./libc_nonshared.a(elf-init.oS)
 .bss           0x000000000002d68a        0x0 /opt/ti-processor-sdk-linux-rt-am57xx-evm-04.03.00.05/linux-devkit/sysroots/x86_64-arago-linux/usr/bin/../lib/gcc/arm-linux-gnueabihf/6.2.1/crtend.o
 .bss           0x000000000002d68a        0x0 /opt/ti-processor-sdk-linux-rt-am57xx-evm-04.03.00.05/linux-devkit/sysroots/x86_64-arago-linux/usr/bin/../arm-linux-gnueabihf/libc/usr/lib/arm-linux-gnueabihf/6.2.1/crtn.o
 *(COMMON)
 *fill*         0x000000000002d68a        0x2 
 COMMON         0x000000000002d68c        0xc /opt/ti/ipc_3_47_01_00/linux/src/api/.libs/libtiipc.a(Ipc.o)
                0x000000000002d68c                _GateHWSpinlock_cfgParams
 COMMON         0x000000000002d698      0x174 /opt/ti/ipc_3_47_01_00/linux/src/utils/.libs/libtiipcutils.a(MultiProc_app.o)
                0x000000000002d698                _MultiProc_cfg
                0x000000000002d80c                . = ALIGN ((. != 0x0)?0x4:0x1)
                0x000000000002d80c                _bss_end__ = .
                0x000000000002d80c                __bss_end__ = .
                0x000000000002d80c                . = ALIGN (0x4)
                0x000000000002d80c                . = SEGMENT_START ("ldata-segment", .)
                0x000000000002d80c                . = ALIGN (0x4)
                0x000000000002d80c                __end__ = .
                0x000000000002d80c                _end = .
                [!provide]                        PROVIDE (end, .)
                0x000000000002d80c                . = DATA_SEGMENT_END (.)

.stab
 *(.stab)

.stabstr
 *(.stabstr)

.stab.excl
 *(.stab.excl)

.stab.exclstr
 *(.stab.exclstr)

.stab.index
 *(.stab.index)

.stab.indexstr
 *(.stab.indexstr)

.comment        0x0000000000000000       0x2d
 *(.comment)
 .comment       0x0000000000000000       0x2d /opt/ti-processor-sdk-linux-rt-am57xx-evm-04.03.00.05/linux-devkit/sysroots/x86_64-arago-linux/usr/bin/../arm-linux-gnueabihf/libc/usr/lib/arm-linux-gnueabihf/6.2.1/crt1.o
                                         0x2e (size before relaxing)
 .comment       0x000000000000002d       0x2e /opt/ti-processor-sdk-linux-rt-am57xx-evm-04.03.00.05/linux-devkit/sysroots/x86_64-arago-linux/usr/bin/../lib/gcc/arm-linux-gnueabihf/6.2.1/crtbegin.o
 .comment       0x000000000000002d       0x2e bin/debug/obj/main_host.ov7A
 .comment       0x000000000000002d       0x2e bin/debug/obj/App.ov7A
 .comment       0x000000000000002d       0x2e /opt/ti/ipc_3_47_01_00/linux/src/transport/.libs/libtitransportrpmsg.a(TransportRpmsg.o)
 .comment       0x000000000000002d       0x2e /opt/ti/ipc_3_47_01_00/linux/src/api/.libs/libtiipc.a(MessageQ.o)
 .comment       0x000000000000002d       0x2e /opt/ti/ipc_3_47_01_00/linux/src/api/.libs/libtiipc.a(NameServer.o)
 .comment       0x000000000000002d       0x2e /opt/ti/ipc_3_47_01_00/linux/src/api/.libs/libtiipc.a(Ipc.o)
 .comment       0x000000000000002d       0x2e /opt/ti/ipc_3_47_01_00/linux/src/api/.libs/libtiipc.a(HeapStd.o)
 .comment       0x000000000000002d       0x2e /opt/ti/ipc_3_47_01_00/linux/src/api/.libs/libtiipc.a(GateMP.o)
 .comment       0x000000000000002d       0x2e /opt/ti/ipc_3_47_01_00/linux/src/api/.libs/libtiipc.a(GateHWSpinlock.o)
 .comment       0x000000000000002d       0x2e /opt/ti/ipc_3_47_01_00/linux/src/api/.libs/libtiipc.a(MultiProc.o)
 .comment       0x000000000000002d       0x2e /opt/ti/ipc_3_47_01_00/linux/src/api/.libs/libtiipc.a(GateMutex.o)
 .comment       0x000000000000002d       0x2e /opt/ti/ipc_3_47_01_00/linux/src/utils/.libs/libtiipcutils.a(LAD_client.o)
 .comment       0x000000000000002d       0x2e /opt/ti/ipc_3_47_01_00/linux/src/utils/.libs/libtiipcutils.a(MultiProc.o)
 .comment       0x000000000000002d       0x2e /opt/ti/ipc_3_47_01_00/linux/src/utils/.libs/libtiipcutils.a(MultiProc_app.o)
 .comment       0x000000000000002d       0x2e /opt/ti/ipc_3_47_01_00/linux/src/utils/.libs/libtiipcutils.a(SocketFxns.o)
 .comment       0x000000000000002d       0x2e /opt/ti-processor-sdk-linux-rt-am57xx-evm-04.03.00.05/linux-devkit/sysroots/x86_64-arago-linux/usr/bin/../arm-linux-gnueabihf/libc/usr/lib/arm-linux-gnueabihf/6.2.1/./libc_nonshared.a(elf-init.oS)
 .comment       0x000000000000002d       0x2e /opt/ti-processor-sdk-linux-rt-am57xx-evm-04.03.00.05/linux-devkit/sysroots/x86_64-arago-linux/usr/bin/../lib/gcc/arm-linux-gnueabihf/6.2.1/crtend.o

.ARM.attributes
                0x0000000000000000       0x33
 .ARM.attributes
                0x0000000000000000       0x33 /opt/ti-processor-sdk-linux-rt-am57xx-evm-04.03.00.05/linux-devkit/sysroots/x86_64-arago-linux/usr/bin/../arm-linux-gnueabihf/libc/usr/lib/arm-linux-gnueabihf/6.2.1/crt1.o
 .ARM.attributes
                0x0000000000000033       0x23 /opt/ti-processor-sdk-linux-rt-am57xx-evm-04.03.00.05/linux-devkit/sysroots/x86_64-arago-linux/usr/bin/../arm-linux-gnueabihf/libc/usr/lib/arm-linux-gnueabihf/6.2.1/crti.o
 .ARM.attributes
                0x0000000000000056       0x33 /opt/ti-processor-sdk-linux-rt-am57xx-evm-04.03.00.05/linux-devkit/sysroots/x86_64-arago-linux/usr/bin/../lib/gcc/arm-linux-gnueabihf/6.2.1/crtbegin.o
 .ARM.attributes
                0x0000000000000089       0x33 bin/debug/obj/main_host.ov7A
 .ARM.attributes
                0x00000000000000bc       0x33 bin/debug/obj/App.ov7A
 .ARM.attributes
                0x00000000000000ef       0x33 /opt/ti/ipc_3_47_01_00/linux/src/transport/.libs/libtitransportrpmsg.a(TransportRpmsg.o)
 .ARM.attributes
                0x0000000000000122       0x33 /opt/ti/ipc_3_47_01_00/linux/src/api/.libs/libtiipc.a(MessageQ.o)
 .ARM.attributes
                0x0000000000000155       0x33 /opt/ti/ipc_3_47_01_00/linux/src/api/.libs/libtiipc.a(NameServer.o)
 .ARM.attributes
                0x0000000000000188       0x33 /opt/ti/ipc_3_47_01_00/linux/src/api/.libs/libtiipc.a(Ipc.o)
 .ARM.attributes
                0x00000000000001bb       0x33 /opt/ti/ipc_3_47_01_00/linux/src/api/.libs/libtiipc.a(HeapStd.o)
 .ARM.attributes
                0x00000000000001ee       0x33 /opt/ti/ipc_3_47_01_00/linux/src/api/.libs/libtiipc.a(GateMP.o)
 .ARM.attributes
                0x0000000000000221       0x33 /opt/ti/ipc_3_47_01_00/linux/src/api/.libs/libtiipc.a(GateHWSpinlock.o)
 .ARM.attributes
                0x0000000000000254       0x33 /opt/ti/ipc_3_47_01_00/linux/src/api/.libs/libtiipc.a(MultiProc.o)
 .ARM.attributes
                0x0000000000000287       0x33 /opt/ti/ipc_3_47_01_00/linux/src/api/.libs/libtiipc.a(GateMutex.o)
 .ARM.attributes
                0x00000000000002ba       0x33 /opt/ti/ipc_3_47_01_00/linux/src/utils/.libs/libtiipcutils.a(LAD_client.o)
 .ARM.attributes
                0x00000000000002ed       0x33 /opt/ti/ipc_3_47_01_00/linux/src/utils/.libs/libtiipcutils.a(MultiProc.o)
 .ARM.attributes
                0x0000000000000320       0x33 /opt/ti/ipc_3_47_01_00/linux/src/utils/.libs/libtiipcutils.a(MultiProc_app.o)
 .ARM.attributes
                0x0000000000000353       0x33 /opt/ti/ipc_3_47_01_00/linux/src/utils/.libs/libtiipcutils.a(SocketFxns.o)
 .ARM.attributes
                0x0000000000000386       0x35 /opt/ti-processor-sdk-linux-rt-am57xx-evm-04.03.00.05/linux-devkit/sysroots/x86_64-arago-linux/usr/bin/../arm-linux-gnueabihf/libc/usr/lib/arm-linux-gnueabihf/6.2.1/./libc_nonshared.a(elf-init.oS)
 .ARM.attributes
                0x00000000000003bb       0x33 /opt/ti-processor-sdk-linux-rt-am57xx-evm-04.03.00.05/linux-devkit/sysroots/x86_64-arago-linux/usr/bin/../lib/gcc/arm-linux-gnueabihf/6.2.1/crtend.o
 .ARM.attributes
                0x00000000000003ee       0x23 /opt/ti-processor-sdk-linux-rt-am57xx-evm-04.03.00.05/linux-devkit/sysroots/x86_64-arago-linux/usr/bin/../arm-linux-gnueabihf/libc/usr/lib/arm-linux-gnueabihf/6.2.1/crtn.o

.debug
 *(.debug)

.line
 *(.line)

.debug_srcinfo
 *(.debug_srcinfo)

.debug_sfnames
 *(.debug_sfnames)

.debug_aranges  0x0000000000000000      0x290
 *(.debug_aranges)
 .debug_aranges
                0x0000000000000000       0x38 /opt/ti-processor-sdk-linux-rt-am57xx-evm-04.03.00.05/linux-devkit/sysroots/x86_64-arago-linux/usr/bin/../arm-linux-gnueabihf/libc/usr/lib/arm-linux-gnueabihf/6.2.1/crt1.o
 .debug_aranges
                0x0000000000000038       0x30 /opt/ti-processor-sdk-linux-rt-am57xx-evm-04.03.00.05/linux-devkit/sysroots/x86_64-arago-linux/usr/bin/../arm-linux-gnueabihf/libc/usr/lib/arm-linux-gnueabihf/6.2.1/crti.o
 .debug_aranges
                0x0000000000000068       0x20 bin/debug/obj/main_host.ov7A
 .debug_aranges
                0x0000000000000088       0x20 bin/debug/obj/App.ov7A
 .debug_aranges
                0x00000000000000a8       0x20 /opt/ti/ipc_3_47_01_00/linux/src/transport/.libs/libtitransportrpmsg.a(TransportRpmsg.o)
 .debug_aranges
                0x00000000000000c8       0x20 /opt/ti/ipc_3_47_01_00/linux/src/api/.libs/libtiipc.a(MessageQ.o)
 .debug_aranges
                0x00000000000000e8       0x20 /opt/ti/ipc_3_47_01_00/linux/src/api/.libs/libtiipc.a(NameServer.o)
 .debug_aranges
                0x0000000000000108       0x20 /opt/ti/ipc_3_47_01_00/linux/src/api/.libs/libtiipc.a(Ipc.o)
 .debug_aranges
                0x0000000000000128       0x20 /opt/ti/ipc_3_47_01_00/linux/src/api/.libs/libtiipc.a(HeapStd.o)
 .debug_aranges
                0x0000000000000148       0x20 /opt/ti/ipc_3_47_01_00/linux/src/api/.libs/libtiipc.a(GateMP.o)
 .debug_aranges
                0x0000000000000168       0x20 /opt/ti/ipc_3_47_01_00/linux/src/api/.libs/libtiipc.a(GateHWSpinlock.o)
 .debug_aranges
                0x0000000000000188       0x20 /opt/ti/ipc_3_47_01_00/linux/src/api/.libs/libtiipc.a(MultiProc.o)
 .debug_aranges
                0x00000000000001a8       0x20 /opt/ti/ipc_3_47_01_00/linux/src/api/.libs/libtiipc.a(GateMutex.o)
 .debug_aranges
                0x00000000000001c8       0x20 /opt/ti/ipc_3_47_01_00/linux/src/utils/.libs/libtiipcutils.a(LAD_client.o)
 .debug_aranges
                0x00000000000001e8       0x20 /opt/ti/ipc_3_47_01_00/linux/src/utils/.libs/libtiipcutils.a(MultiProc.o)
 .debug_aranges
                0x0000000000000208       0x20 /opt/ti/ipc_3_47_01_00/linux/src/utils/.libs/libtiipcutils.a(MultiProc_app.o)
 .debug_aranges
                0x0000000000000228       0x20 /opt/ti/ipc_3_47_01_00/linux/src/utils/.libs/libtiipcutils.a(SocketFxns.o)
 .debug_aranges
                0x0000000000000248       0x20 /opt/ti-processor-sdk-linux-rt-am57xx-evm-04.03.00.05/linux-devkit/sysroots/x86_64-arago-linux/usr/bin/../arm-linux-gnueabihf/libc/usr/lib/arm-linux-gnueabihf/6.2.1/./libc_nonshared.a(elf-init.oS)
 .debug_aranges
                0x0000000000000268       0x28 /opt/ti-processor-sdk-linux-rt-am57xx-evm-04.03.00.05/linux-devkit/sysroots/x86_64-arago-linux/usr/bin/../arm-linux-gnueabihf/libc/usr/lib/arm-linux-gnueabihf/6.2.1/crtn.o

.debug_pubnames
 *(.debug_pubnames)

.debug_info     0x0000000000000000    0x14187
 *(.debug_info .gnu.linkonce.wi.*)
 .debug_info    0x0000000000000000      0x164 /opt/ti-processor-sdk-linux-rt-am57xx-evm-04.03.00.05/linux-devkit/sysroots/x86_64-arago-linux/usr/bin/../arm-linux-gnueabihf/libc/usr/lib/arm-linux-gnueabihf/6.2.1/crt1.o
 .debug_info    0x0000000000000164       0xd7 /opt/ti-processor-sdk-linux-rt-am57xx-evm-04.03.00.05/linux-devkit/sysroots/x86_64-arago-linux/usr/bin/../arm-linux-gnueabihf/libc/usr/lib/arm-linux-gnueabihf/6.2.1/crti.o
 .debug_info    0x000000000000023b      0x5d9 bin/debug/obj/main_host.ov7A
 .debug_info    0x0000000000000814      0x7b8 bin/debug/obj/App.ov7A
 .debug_info    0x0000000000000fcc     0x2433 /opt/ti/ipc_3_47_01_00/linux/src/transport/.libs/libtitransportrpmsg.a(TransportRpmsg.o)
 .debug_info    0x00000000000033ff     0x34f3 /opt/ti/ipc_3_47_01_00/linux/src/api/.libs/libtiipc.a(MessageQ.o)
 .debug_info    0x00000000000068f2     0x2468 /opt/ti/ipc_3_47_01_00/linux/src/api/.libs/libtiipc.a(NameServer.o)
 .debug_info    0x0000000000008d5a     0x216f /opt/ti/ipc_3_47_01_00/linux/src/api/.libs/libtiipc.a(Ipc.o)
 .debug_info    0x000000000000aec9      0x2a5 /opt/ti/ipc_3_47_01_00/linux/src/api/.libs/libtiipc.a(HeapStd.o)
 .debug_info    0x000000000000b16e     0x28e5 /opt/ti/ipc_3_47_01_00/linux/src/api/.libs/libtiipc.a(GateMP.o)
 .debug_info    0x000000000000da53     0x1ad2 /opt/ti/ipc_3_47_01_00/linux/src/api/.libs/libtiipc.a(GateHWSpinlock.o)
 .debug_info    0x000000000000f525     0x12d9 /opt/ti/ipc_3_47_01_00/linux/src/api/.libs/libtiipc.a(MultiProc.o)
 .debug_info    0x00000000000107fe      0x708 /opt/ti/ipc_3_47_01_00/linux/src/api/.libs/libtiipc.a(GateMutex.o)
 .debug_info    0x0000000000010f06     0x1fc2 /opt/ti/ipc_3_47_01_00/linux/src/utils/.libs/libtiipcutils.a(LAD_client.o)
 .debug_info    0x0000000000012ec8      0x3ec /opt/ti/ipc_3_47_01_00/linux/src/utils/.libs/libtiipcutils.a(MultiProc.o)
 .debug_info    0x00000000000132b4      0x1ff /opt/ti/ipc_3_47_01_00/linux/src/utils/.libs/libtiipcutils.a(MultiProc_app.o)
 .debug_info    0x00000000000134b3      0xa74 /opt/ti/ipc_3_47_01_00/linux/src/utils/.libs/libtiipcutils.a(SocketFxns.o)
 .debug_info    0x0000000000013f27      0x189 /opt/ti-processor-sdk-linux-rt-am57xx-evm-04.03.00.05/linux-devkit/sysroots/x86_64-arago-linux/usr/bin/../arm-linux-gnueabihf/libc/usr/lib/arm-linux-gnueabihf/6.2.1/./libc_nonshared.a(elf-init.oS)
 .debug_info    0x00000000000140b0       0xd7 /opt/ti-processor-sdk-linux-rt-am57xx-evm-04.03.00.05/linux-devkit/sysroots/x86_64-arago-linux/usr/bin/../arm-linux-gnueabihf/libc/usr/lib/arm-linux-gnueabihf/6.2.1/crtn.o

.debug_abbrev   0x0000000000000000     0x2dc3
 *(.debug_abbrev)
 .debug_abbrev  0x0000000000000000       0x52 /opt/ti-processor-sdk-linux-rt-am57xx-evm-04.03.00.05/linux-devkit/sysroots/x86_64-arago-linux/usr/bin/../arm-linux-gnueabihf/libc/usr/lib/arm-linux-gnueabihf/6.2.1/crt1.o
 .debug_abbrev  0x0000000000000052       0x12 /opt/ti-processor-sdk-linux-rt-am57xx-evm-04.03.00.05/linux-devkit/sysroots/x86_64-arago-linux/usr/bin/../arm-linux-gnueabihf/libc/usr/lib/arm-linux-gnueabihf/6.2.1/crti.o
 .debug_abbrev  0x0000000000000064      0x172 bin/debug/obj/main_host.ov7A
 .debug_abbrev  0x00000000000001d6      0x188 bin/debug/obj/App.ov7A
 .debug_abbrev  0x000000000000035e      0x4db /opt/ti/ipc_3_47_01_00/linux/src/transport/.libs/libtitransportrpmsg.a(TransportRpmsg.o)
 .debug_abbrev  0x0000000000000839      0x530 /opt/ti/ipc_3_47_01_00/linux/src/api/.libs/libtiipc.a(MessageQ.o)
 .debug_abbrev  0x0000000000000d69      0x320 /opt/ti/ipc_3_47_01_00/linux/src/api/.libs/libtiipc.a(NameServer.o)
 .debug_abbrev  0x0000000000001089      0x443 /opt/ti/ipc_3_47_01_00/linux/src/api/.libs/libtiipc.a(Ipc.o)
 .debug_abbrev  0x00000000000014cc      0x142 /opt/ti/ipc_3_47_01_00/linux/src/api/.libs/libtiipc.a(HeapStd.o)
 .debug_abbrev  0x000000000000160e      0x518 /opt/ti/ipc_3_47_01_00/linux/src/api/.libs/libtiipc.a(GateMP.o)
 .debug_abbrev  0x0000000000001b26      0x426 /opt/ti/ipc_3_47_01_00/linux/src/api/.libs/libtiipc.a(GateHWSpinlock.o)
 .debug_abbrev  0x0000000000001f4c      0x293 /opt/ti/ipc_3_47_01_00/linux/src/api/.libs/libtiipc.a(MultiProc.o)
 .debug_abbrev  0x00000000000021df      0x25b /opt/ti/ipc_3_47_01_00/linux/src/api/.libs/libtiipc.a(GateMutex.o)
 .debug_abbrev  0x000000000000243a      0x3ea /opt/ti/ipc_3_47_01_00/linux/src/utils/.libs/libtiipcutils.a(LAD_client.o)
 .debug_abbrev  0x0000000000002824      0x187 /opt/ti/ipc_3_47_01_00/linux/src/utils/.libs/libtiipcutils.a(MultiProc.o)
 .debug_abbrev  0x00000000000029ab      0x10d /opt/ti/ipc_3_47_01_00/linux/src/utils/.libs/libtiipcutils.a(MultiProc_app.o)
 .debug_abbrev  0x0000000000002ab8      0x1e1 /opt/ti/ipc_3_47_01_00/linux/src/utils/.libs/libtiipcutils.a(SocketFxns.o)
 .debug_abbrev  0x0000000000002c99      0x118 /opt/ti-processor-sdk-linux-rt-am57xx-evm-04.03.00.05/linux-devkit/sysroots/x86_64-arago-linux/usr/bin/../arm-linux-gnueabihf/libc/usr/lib/arm-linux-gnueabihf/6.2.1/./libc_nonshared.a(elf-init.oS)
 .debug_abbrev  0x0000000000002db1       0x12 /opt/ti-processor-sdk-linux-rt-am57xx-evm-04.03.00.05/linux-devkit/sysroots/x86_64-arago-linux/usr/bin/../arm-linux-gnueabihf/libc/usr/lib/arm-linux-gnueabihf/6.2.1/crtn.o

.debug_line     0x0000000000000000     0x527e
 *(.debug_line .debug_line.* .debug_line_end)
 .debug_line    0x0000000000000000       0x80 /opt/ti-processor-sdk-linux-rt-am57xx-evm-04.03.00.05/linux-devkit/sysroots/x86_64-arago-linux/usr/bin/../arm-linux-gnueabihf/libc/usr/lib/arm-linux-gnueabihf/6.2.1/crt1.o
 .debug_line    0x0000000000000080       0x6c /opt/ti-processor-sdk-linux-rt-am57xx-evm-04.03.00.05/linux-devkit/sysroots/x86_64-arago-linux/usr/bin/../arm-linux-gnueabihf/libc/usr/lib/arm-linux-gnueabihf/6.2.1/crti.o
 .debug_line    0x00000000000000ec      0x355 bin/debug/obj/main_host.ov7A
 .debug_line    0x0000000000000441      0x357 bin/debug/obj/App.ov7A
 .debug_line    0x0000000000000798      0x987 /opt/ti/ipc_3_47_01_00/linux/src/transport/.libs/libtitransportrpmsg.a(TransportRpmsg.o)
 .debug_line    0x000000000000111f      0xab9 /opt/ti/ipc_3_47_01_00/linux/src/api/.libs/libtiipc.a(MessageQ.o)
 .debug_line    0x0000000000001bd8      0x97b /opt/ti/ipc_3_47_01_00/linux/src/api/.libs/libtiipc.a(NameServer.o)
 .debug_line    0x0000000000002553      0x695 /opt/ti/ipc_3_47_01_00/linux/src/api/.libs/libtiipc.a(Ipc.o)
 .debug_line    0x0000000000002be8      0x1dc /opt/ti/ipc_3_47_01_00/linux/src/api/.libs/libtiipc.a(HeapStd.o)
 .debug_line    0x0000000000002dc4      0x8f0 /opt/ti/ipc_3_47_01_00/linux/src/api/.libs/libtiipc.a(GateMP.o)
 .debug_line    0x00000000000036b4      0x5cf /opt/ti/ipc_3_47_01_00/linux/src/api/.libs/libtiipc.a(GateHWSpinlock.o)
 .debug_line    0x0000000000003c83      0x3f2 /opt/ti/ipc_3_47_01_00/linux/src/api/.libs/libtiipc.a(MultiProc.o)
 .debug_line    0x0000000000004075      0x221 /opt/ti/ipc_3_47_01_00/linux/src/api/.libs/libtiipc.a(GateMutex.o)
 .debug_line    0x0000000000004296      0x645 /opt/ti/ipc_3_47_01_00/linux/src/utils/.libs/libtiipcutils.a(LAD_client.o)
 .debug_line    0x00000000000048db      0x224 /opt/ti/ipc_3_47_01_00/linux/src/utils/.libs/libtiipcutils.a(MultiProc.o)
 .debug_line    0x0000000000004aff      0x11a /opt/ti/ipc_3_47_01_00/linux/src/utils/.libs/libtiipcutils.a(MultiProc_app.o)
 .debug_line    0x0000000000004c19      0x4db /opt/ti/ipc_3_47_01_00/linux/src/utils/.libs/libtiipcutils.a(SocketFxns.o)
 .debug_line    0x00000000000050f4      0x136 /opt/ti-processor-sdk-linux-rt-am57xx-evm-04.03.00.05/linux-devkit/sysroots/x86_64-arago-linux/usr/bin/../arm-linux-gnueabihf/libc/usr/lib/arm-linux-gnueabihf/6.2.1/./libc_nonshared.a(elf-init.oS)
 .debug_line    0x000000000000522a       0x54 /opt/ti-processor-sdk-linux-rt-am57xx-evm-04.03.00.05/linux-devkit/sysroots/x86_64-arago-linux/usr/bin/../arm-linux-gnueabihf/libc/usr/lib/arm-linux-gnueabihf/6.2.1/crtn.o

.debug_frame    0x0000000000000000     0x1264
 *(.debug_frame)
 .debug_frame   0x0000000000000000       0x80 bin/debug/obj/main_host.ov7A
 .debug_frame   0x0000000000000080       0xac bin/debug/obj/App.ov7A
 .debug_frame   0x000000000000012c      0x1d4 /opt/ti/ipc_3_47_01_00/linux/src/transport/.libs/libtitransportrpmsg.a(TransportRpmsg.o)
 .debug_frame   0x0000000000000300      0x3d8 /opt/ti/ipc_3_47_01_00/linux/src/api/.libs/libtiipc.a(MessageQ.o)
 .debug_frame   0x00000000000006d8      0x308 /opt/ti/ipc_3_47_01_00/linux/src/api/.libs/libtiipc.a(NameServer.o)
 .debug_frame   0x00000000000009e0      0x130 /opt/ti/ipc_3_47_01_00/linux/src/api/.libs/libtiipc.a(Ipc.o)
 .debug_frame   0x0000000000000b10       0x60 /opt/ti/ipc_3_47_01_00/linux/src/api/.libs/libtiipc.a(HeapStd.o)
 .debug_frame   0x0000000000000b70      0x294 /opt/ti/ipc_3_47_01_00/linux/src/api/.libs/libtiipc.a(GateMP.o)
 .debug_frame   0x0000000000000e04      0x128 /opt/ti/ipc_3_47_01_00/linux/src/api/.libs/libtiipc.a(GateHWSpinlock.o)
 .debug_frame   0x0000000000000f2c       0x40 /opt/ti/ipc_3_47_01_00/linux/src/api/.libs/libtiipc.a(MultiProc.o)
 .debug_frame   0x0000000000000f6c       0x7c /opt/ti/ipc_3_47_01_00/linux/src/api/.libs/libtiipc.a(GateMutex.o)
 .debug_frame   0x0000000000000fe8      0x108 /opt/ti/ipc_3_47_01_00/linux/src/utils/.libs/libtiipcutils.a(LAD_client.o)
 .debug_frame   0x00000000000010f0       0xa4 /opt/ti/ipc_3_47_01_00/linux/src/utils/.libs/libtiipcutils.a(MultiProc.o)
 .debug_frame   0x0000000000001194       0x20 /opt/ti/ipc_3_47_01_00/linux/src/utils/.libs/libtiipcutils.a(MultiProc_app.o)
 .debug_frame   0x00000000000011b4       0x6c /opt/ti/ipc_3_47_01_00/linux/src/utils/.libs/libtiipcutils.a(SocketFxns.o)
 .debug_frame   0x0000000000001220       0x44 /opt/ti-processor-sdk-linux-rt-am57xx-evm-04.03.00.05/linux-devkit/sysroots/x86_64-arago-linux/usr/bin/../arm-linux-gnueabihf/libc/usr/lib/arm-linux-gnueabihf/6.2.1/./libc_nonshared.a(elf-init.oS)

.debug_str      0x0000000000000000     0x2f1b
 *(.debug_str)
 .debug_str     0x0000000000000000      0x1d7 /opt/ti-processor-sdk-linux-rt-am57xx-evm-04.03.00.05/linux-devkit/sysroots/x86_64-arago-linux/usr/bin/../arm-linux-gnueabihf/libc/usr/lib/arm-linux-gnueabihf/6.2.1/crt1.o
                                        0x217 (size before relaxing)
 .debug_str     0x00000000000001d7      0x36f bin/debug/obj/main_host.ov7A
                                        0x468 (size before relaxing)
 .debug_str     0x0000000000000546      0x20f bin/debug/obj/App.ov7A
                                        0x5e7 (size before relaxing)
 .debug_str     0x0000000000000755      0xa81 /opt/ti/ipc_3_47_01_00/linux/src/transport/.libs/libtitransportrpmsg.a(TransportRpmsg.o)
                                        0xf52 (size before relaxing)
 .debug_str     0x00000000000011d6      0xd9e /opt/ti/ipc_3_47_01_00/linux/src/api/.libs/libtiipc.a(MessageQ.o)
                                       0x17d4 (size before relaxing)
 .debug_str     0x0000000000001f74      0x146 /opt/ti/ipc_3_47_01_00/linux/src/api/.libs/libtiipc.a(NameServer.o)
                                        0xf3d (size before relaxing)
 .debug_str     0x00000000000020ba      0x226 /opt/ti/ipc_3_47_01_00/linux/src/api/.libs/libtiipc.a(Ipc.o)
                                       0x1335 (size before relaxing)
 .debug_str     0x00000000000022e0       0x72 /opt/ti/ipc_3_47_01_00/linux/src/api/.libs/libtiipc.a(HeapStd.o)
                                        0x236 (size before relaxing)
 .debug_str     0x0000000000002352      0x50b /opt/ti/ipc_3_47_01_00/linux/src/api/.libs/libtiipc.a(GateMP.o)
                                       0x151f (size before relaxing)
 .debug_str     0x000000000000285d      0x153 /opt/ti/ipc_3_47_01_00/linux/src/api/.libs/libtiipc.a(GateHWSpinlock.o)
                                       0x1114 (size before relaxing)
 .debug_str     0x00000000000029b0      0x153 /opt/ti/ipc_3_47_01_00/linux/src/api/.libs/libtiipc.a(MultiProc.o)
                                        0xd7e (size before relaxing)
 .debug_str     0x00000000000029b0       0xb0 /opt/ti/ipc_3_47_01_00/linux/src/api/.libs/libtiipc.a(GateMutex.o)
                                        0x51c (size before relaxing)
 .debug_str     0x0000000000002a60      0x252 /opt/ti/ipc_3_47_01_00/linux/src/utils/.libs/libtiipcutils.a(LAD_client.o)
                                       0x1235 (size before relaxing)
 .debug_str     0x0000000000002cb2       0xa0 /opt/ti/ipc_3_47_01_00/linux/src/utils/.libs/libtiipcutils.a(MultiProc.o)
                                        0x32f (size before relaxing)
 .debug_str     0x0000000000002d52       0x10 /opt/ti/ipc_3_47_01_00/linux/src/utils/.libs/libtiipcutils.a(MultiProc_app.o)
                                        0x232 (size before relaxing)
 .debug_str     0x0000000000002d62       0x33 /opt/ti/ipc_3_47_01_00/linux/src/utils/.libs/libtiipcutils.a(SocketFxns.o)
                                        0x6e1 (size before relaxing)
 .debug_str     0x0000000000002d95      0x186 /opt/ti-processor-sdk-linux-rt-am57xx-evm-04.03.00.05/linux-devkit/sysroots/x86_64-arago-linux/usr/bin/../arm-linux-gnueabihf/libc/usr/lib/arm-linux-gnueabihf/6.2.1/./libc_nonshared.a(elf-init.oS)
                                        0x25f (size before relaxing)

.debug_loc      0x0000000000000000     0x5d13
 *(.debug_loc)
 .debug_loc     0x0000000000000000      0xdc8 /opt/ti/ipc_3_47_01_00/linux/src/transport/.libs/libtitransportrpmsg.a(TransportRpmsg.o)
 .debug_loc     0x0000000000000dc8     0x1956 /opt/ti/ipc_3_47_01_00/linux/src/api/.libs/libtiipc.a(MessageQ.o)
 .debug_loc     0x000000000000271e      0xf9d /opt/ti/ipc_3_47_01_00/linux/src/api/.libs/libtiipc.a(NameServer.o)
 .debug_loc     0x00000000000036bb      0x6ec /opt/ti/ipc_3_47_01_00/linux/src/api/.libs/libtiipc.a(Ipc.o)
 .debug_loc     0x0000000000003da7       0x84 /opt/ti/ipc_3_47_01_00/linux/src/api/.libs/libtiipc.a(HeapStd.o)
 .debug_loc     0x0000000000003e2b      0xd82 /opt/ti/ipc_3_47_01_00/linux/src/api/.libs/libtiipc.a(GateMP.o)
 .debug_loc     0x0000000000004bad      0x4cd /opt/ti/ipc_3_47_01_00/linux/src/api/.libs/libtiipc.a(GateHWSpinlock.o)
 .debug_loc     0x000000000000507a       0xcf /opt/ti/ipc_3_47_01_00/linux/src/api/.libs/libtiipc.a(MultiProc.o)
 .debug_loc     0x0000000000005149      0x1c1 /opt/ti/ipc_3_47_01_00/linux/src/api/.libs/libtiipc.a(GateMutex.o)
 .debug_loc     0x000000000000530a      0x623 /opt/ti/ipc_3_47_01_00/linux/src/utils/.libs/libtiipcutils.a(LAD_client.o)
 .debug_loc     0x000000000000592d       0xed /opt/ti/ipc_3_47_01_00/linux/src/utils/.libs/libtiipcutils.a(MultiProc.o)
 .debug_loc     0x0000000000005a1a       0x2c /opt/ti/ipc_3_47_01_00/linux/src/utils/.libs/libtiipcutils.a(MultiProc_app.o)
 .debug_loc     0x0000000000005a46      0x1f0 /opt/ti/ipc_3_47_01_00/linux/src/utils/.libs/libtiipcutils.a(SocketFxns.o)
 .debug_loc     0x0000000000005c36       0xdd /opt/ti-processor-sdk-linux-rt-am57xx-evm-04.03.00.05/linux-devkit/sysroots/x86_64-arago-linux/usr/bin/../arm-linux-gnueabihf/libc/usr/lib/arm-linux-gnueabihf/6.2.1/./libc_nonshared.a(elf-init.oS)

.debug_macinfo
 *(.debug_macinfo)

.debug_weaknames
 *(.debug_weaknames)

.debug_funcnames
 *(.debug_funcnames)

.debug_typenames
 *(.debug_typenames)

.debug_varnames
 *(.debug_varnames)

.debug_pubtypes
 *(.debug_pubtypes)

.debug_ranges   0x0000000000000000      0x2b0
 *(.debug_ranges)
 .debug_ranges  0x0000000000000000       0x28 /opt/ti-processor-sdk-linux-rt-am57xx-evm-04.03.00.05/linux-devkit/sysroots/x86_64-arago-linux/usr/bin/../arm-linux-gnueabihf/libc/usr/lib/arm-linux-gnueabihf/6.2.1/crti.o
 .debug_ranges  0x0000000000000028       0x90 /opt/ti/ipc_3_47_01_00/linux/src/transport/.libs/libtitransportrpmsg.a(TransportRpmsg.o)
 .debug_ranges  0x00000000000000b8       0x88 /opt/ti/ipc_3_47_01_00/linux/src/api/.libs/libtiipc.a(MessageQ.o)
 .debug_ranges  0x0000000000000140       0x60 /opt/ti/ipc_3_47_01_00/linux/src/api/.libs/libtiipc.a(GateMP.o)
 .debug_ranges  0x00000000000001a0       0x60 /opt/ti/ipc_3_47_01_00/linux/src/api/.libs/libtiipc.a(GateHWSpinlock.o)
 .debug_ranges  0x0000000000000200       0x90 /opt/ti/ipc_3_47_01_00/linux/src/utils/.libs/libtiipcutils.a(LAD_client.o)
 .debug_ranges  0x0000000000000290       0x20 /opt/ti-processor-sdk-linux-rt-am57xx-evm-04.03.00.05/linux-devkit/sysroots/x86_64-arago-linux/usr/bin/../arm-linux-gnueabihf/libc/usr/lib/arm-linux-gnueabihf/6.2.1/crtn.o

.debug_macro
 *(.debug_macro)

.debug_addr
 *(.debug_addr)

.gnu.attributes
 *(.gnu.attributes)

.note.gnu.arm.ident
 *(.note.gnu.arm.ident)

/DISCARD/
 *(.note.GNU-stack)
 *(.gnu_debuglink)
 *(.gnu.lto_*)
OUTPUT(bin/debug/app_host elf32-littlearm)
