Archive member included to satisfy reference by file (symbol)

/home/cy/extern_disk/sdk/am5728/ti-processor-sdk-rtos-am57xx-evm-04.03.00.05/ipc_3_47_01_00/linux/src/transport/.libs/libtitransportrpmsg.a(TransportRpmsg.o)
                              bin/debug/obj/main_host.ov7A (TransportRpmsg_Factory)
/home/cy/extern_disk/sdk/am5728/ti-processor-sdk-rtos-am57xx-evm-04.03.00.05/ipc_3_47_01_00/linux/src/api/.libs/libtiipc.a(MessageQ.o)
                              /home/cy/extern_disk/sdk/am5728/ti-processor-sdk-rtos-am57xx-evm-04.03.00.05/ipc_3_47_01_00/linux/src/transport/.libs/libtitransportrpmsg.a(TransportRpmsg.o) (MessageQ_registerTransport)
/home/cy/extern_disk/sdk/am5728/ti-processor-sdk-rtos-am57xx-evm-04.03.00.05/ipc_3_47_01_00/linux/src/api/.libs/libtiipc.a(NameServer.o)
                              /home/cy/extern_disk/sdk/am5728/ti-processor-sdk-rtos-am57xx-evm-04.03.00.05/ipc_3_47_01_00/linux/src/api/.libs/libtiipc.a(MessageQ.o) (NameServer_getUInt32)
/home/cy/extern_disk/sdk/am5728/ti-processor-sdk-rtos-am57xx-evm-04.03.00.05/ipc_3_47_01_00/linux/src/api/.libs/libtiipc.a(Ipc.o)
                              bin/debug/obj/main_host.ov7A (Ipc_transportConfig)
/home/cy/extern_disk/sdk/am5728/ti-processor-sdk-rtos-am57xx-evm-04.03.00.05/ipc_3_47_01_00/linux/src/api/.libs/libtiipc.a(HeapStd.o)
                              /home/cy/extern_disk/sdk/am5728/ti-processor-sdk-rtos-am57xx-evm-04.03.00.05/ipc_3_47_01_00/linux/src/api/.libs/libtiipc.a(Ipc.o) (HeapStd_handle)
/home/cy/extern_disk/sdk/am5728/ti-processor-sdk-rtos-am57xx-evm-04.03.00.05/ipc_3_47_01_00/linux/src/api/.libs/libtiipc.a(GateMP.o)
                              /home/cy/extern_disk/sdk/am5728/ti-processor-sdk-rtos-am57xx-evm-04.03.00.05/ipc_3_47_01_00/linux/src/api/.libs/libtiipc.a(Ipc.o) (GateMP_attach)
/home/cy/extern_disk/sdk/am5728/ti-processor-sdk-rtos-am57xx-evm-04.03.00.05/ipc_3_47_01_00/linux/src/api/.libs/libtiipc.a(GateHWSpinlock.o)
                              /home/cy/extern_disk/sdk/am5728/ti-processor-sdk-rtos-am57xx-evm-04.03.00.05/ipc_3_47_01_00/linux/src/api/.libs/libtiipc.a(Ipc.o) (GateHWSpinlock_getConfig)
/home/cy/extern_disk/sdk/am5728/ti-processor-sdk-rtos-am57xx-evm-04.03.00.05/ipc_3_47_01_00/linux/src/api/.libs/libtiipc.a(MultiProc.o)
                              /home/cy/extern_disk/sdk/am5728/ti-processor-sdk-rtos-am57xx-evm-04.03.00.05/ipc_3_47_01_00/linux/src/api/.libs/libtiipc.a(Ipc.o) (MultiProc_getConfig)
/home/cy/extern_disk/sdk/am5728/ti-processor-sdk-rtos-am57xx-evm-04.03.00.05/ipc_3_47_01_00/linux/src/api/.libs/libtiipc.a(GateMutex.o)
                              /home/cy/extern_disk/sdk/am5728/ti-processor-sdk-rtos-am57xx-evm-04.03.00.05/ipc_3_47_01_00/linux/src/api/.libs/libtiipc.a(GateHWSpinlock.o) (GateMutex_create)
/home/cy/extern_disk/sdk/am5728/ti-processor-sdk-rtos-am57xx-evm-04.03.00.05/ipc_3_47_01_00/linux/src/utils/.libs/libtiipcutils.a(LAD_client.o)
                              /home/cy/extern_disk/sdk/am5728/ti-processor-sdk-rtos-am57xx-evm-04.03.00.05/ipc_3_47_01_00/linux/src/api/.libs/libtiipc.a(MessageQ.o) (LAD_findHandle)
/home/cy/extern_disk/sdk/am5728/ti-processor-sdk-rtos-am57xx-evm-04.03.00.05/ipc_3_47_01_00/linux/src/utils/.libs/libtiipcutils.a(MultiProc.o)
                              /home/cy/extern_disk/sdk/am5728/ti-processor-sdk-rtos-am57xx-evm-04.03.00.05/ipc_3_47_01_00/linux/src/transport/.libs/libtitransportrpmsg.a(TransportRpmsg.o) (MultiProc_getBaseIdOfCluster)
/home/cy/extern_disk/sdk/am5728/ti-processor-sdk-rtos-am57xx-evm-04.03.00.05/ipc_3_47_01_00/linux/src/utils/.libs/libtiipcutils.a(MultiProc_app.o)
                              /home/cy/extern_disk/sdk/am5728/ti-processor-sdk-rtos-am57xx-evm-04.03.00.05/ipc_3_47_01_00/linux/src/api/.libs/libtiipc.a(Ipc.o) (_MultiProc_initCfg)
/home/cy/extern_disk/sdk/am5728/ti-processor-sdk-rtos-am57xx-evm-04.03.00.05/ipc_3_47_01_00/linux/src/utils/.libs/libtiipcutils.a(SocketFxns.o)
                              /home/cy/extern_disk/sdk/am5728/ti-processor-sdk-rtos-am57xx-evm-04.03.00.05/ipc_3_47_01_00/linux/src/transport/.libs/libtitransportrpmsg.a(TransportRpmsg.o) (ConnectSocket)
/home/cy/zip/ludev/__install/lib/libticmem.a(cmem.o)
                              bin/debug/obj/GateMPApp.ov7A (CMEM_alloc)
/home/cy/cross-compiler-tools/gcc-linaro-6.2.1-2016.11-x86_64_arm-linux-gnueabihf/bin/../arm-linux-gnueabihf/libc/usr/lib/libc_nonshared.a(elf-init.oS)
                              /home/cy/cross-compiler-tools/gcc-linaro-6.2.1-2016.11-x86_64_arm-linux-gnueabihf/bin/../arm-linux-gnueabihf/libc/usr/lib/crt1.o (__libc_csu_init)

分配公共符号
公共符号            大小              文件

_GateHWSpinlock_cfgParams
                    0xc               /home/cy/extern_disk/sdk/am5728/ti-processor-sdk-rtos-am57xx-evm-04.03.00.05/ipc_3_47_01_00/linux/src/api/.libs/libtiipc.a(Ipc.o)
cmemAttrs           0xc               bin/debug/obj/GateMPApp.ov7A
_MultiProc_cfg      0x174             /home/cy/extern_disk/sdk/am5728/ti-processor-sdk-rtos-am57xx-evm-04.03.00.05/ipc_3_47_01_00/linux/src/utils/.libs/libtiipcutils.a(MultiProc_app.o)

舍弃的输入节

 .note.GNU-stack
                0x0000000000000000        0x0 /home/cy/cross-compiler-tools/gcc-linaro-6.2.1-2016.11-x86_64_arm-linux-gnueabihf/bin/../arm-linux-gnueabihf/libc/usr/lib/crt1.o
 .note.GNU-stack
                0x0000000000000000        0x0 /home/cy/cross-compiler-tools/gcc-linaro-6.2.1-2016.11-x86_64_arm-linux-gnueabihf/bin/../arm-linux-gnueabihf/libc/usr/lib/crti.o
 .note.GNU-stack
                0x0000000000000000        0x0 /home/cy/cross-compiler-tools/gcc-linaro-6.2.1-2016.11-x86_64_arm-linux-gnueabihf/bin/../lib/gcc/arm-linux-gnueabihf/6.2.1/crtbegin.o
 .note.GNU-stack
                0x0000000000000000        0x0 bin/debug/obj/main_host.ov7A
 .note.GNU-stack
                0x0000000000000000        0x0 bin/debug/obj/GateMPApp.ov7A
 .note.GNU-stack
                0x0000000000000000        0x0 /home/cy/extern_disk/sdk/am5728/ti-processor-sdk-rtos-am57xx-evm-04.03.00.05/ipc_3_47_01_00/linux/src/transport/.libs/libtitransportrpmsg.a(TransportRpmsg.o)
 .note.GNU-stack
                0x0000000000000000        0x0 /home/cy/extern_disk/sdk/am5728/ti-processor-sdk-rtos-am57xx-evm-04.03.00.05/ipc_3_47_01_00/linux/src/api/.libs/libtiipc.a(MessageQ.o)
 .note.GNU-stack
                0x0000000000000000        0x0 /home/cy/extern_disk/sdk/am5728/ti-processor-sdk-rtos-am57xx-evm-04.03.00.05/ipc_3_47_01_00/linux/src/api/.libs/libtiipc.a(NameServer.o)
 .note.GNU-stack
                0x0000000000000000        0x0 /home/cy/extern_disk/sdk/am5728/ti-processor-sdk-rtos-am57xx-evm-04.03.00.05/ipc_3_47_01_00/linux/src/api/.libs/libtiipc.a(Ipc.o)
 .note.GNU-stack
                0x0000000000000000        0x0 /home/cy/extern_disk/sdk/am5728/ti-processor-sdk-rtos-am57xx-evm-04.03.00.05/ipc_3_47_01_00/linux/src/api/.libs/libtiipc.a(HeapStd.o)
 .note.GNU-stack
                0x0000000000000000        0x0 /home/cy/extern_disk/sdk/am5728/ti-processor-sdk-rtos-am57xx-evm-04.03.00.05/ipc_3_47_01_00/linux/src/api/.libs/libtiipc.a(GateMP.o)
 .note.GNU-stack
                0x0000000000000000        0x0 /home/cy/extern_disk/sdk/am5728/ti-processor-sdk-rtos-am57xx-evm-04.03.00.05/ipc_3_47_01_00/linux/src/api/.libs/libtiipc.a(GateHWSpinlock.o)
 .note.GNU-stack
                0x0000000000000000        0x0 /home/cy/extern_disk/sdk/am5728/ti-processor-sdk-rtos-am57xx-evm-04.03.00.05/ipc_3_47_01_00/linux/src/api/.libs/libtiipc.a(MultiProc.o)
 .note.GNU-stack
                0x0000000000000000        0x0 /home/cy/extern_disk/sdk/am5728/ti-processor-sdk-rtos-am57xx-evm-04.03.00.05/ipc_3_47_01_00/linux/src/api/.libs/libtiipc.a(GateMutex.o)
 .note.GNU-stack
                0x0000000000000000        0x0 /home/cy/extern_disk/sdk/am5728/ti-processor-sdk-rtos-am57xx-evm-04.03.00.05/ipc_3_47_01_00/linux/src/utils/.libs/libtiipcutils.a(LAD_client.o)
 .note.GNU-stack
                0x0000000000000000        0x0 /home/cy/extern_disk/sdk/am5728/ti-processor-sdk-rtos-am57xx-evm-04.03.00.05/ipc_3_47_01_00/linux/src/utils/.libs/libtiipcutils.a(MultiProc.o)
 .note.GNU-stack
                0x0000000000000000        0x0 /home/cy/extern_disk/sdk/am5728/ti-processor-sdk-rtos-am57xx-evm-04.03.00.05/ipc_3_47_01_00/linux/src/utils/.libs/libtiipcutils.a(MultiProc_app.o)
 .note.GNU-stack
                0x0000000000000000        0x0 /home/cy/extern_disk/sdk/am5728/ti-processor-sdk-rtos-am57xx-evm-04.03.00.05/ipc_3_47_01_00/linux/src/utils/.libs/libtiipcutils.a(SocketFxns.o)
 .note.GNU-stack
                0x0000000000000000        0x0 /home/cy/zip/ludev/__install/lib/libticmem.a(cmem.o)
 .note.GNU-stack
                0x0000000000000000        0x0 /home/cy/cross-compiler-tools/gcc-linaro-6.2.1-2016.11-x86_64_arm-linux-gnueabihf/bin/../arm-linux-gnueabihf/libc/usr/lib/libc_nonshared.a(elf-init.oS)
 .note.GNU-stack
                0x0000000000000000        0x0 /home/cy/cross-compiler-tools/gcc-linaro-6.2.1-2016.11-x86_64_arm-linux-gnueabihf/bin/../lib/gcc/arm-linux-gnueabihf/6.2.1/crtend.o
 .note.GNU-stack
                0x0000000000000000        0x0 /home/cy/cross-compiler-tools/gcc-linaro-6.2.1-2016.11-x86_64_arm-linux-gnueabihf/bin/../arm-linux-gnueabihf/libc/usr/lib/crtn.o

内存配置

名称           来源             长度             属性
*default*        0x0000000000000000 0xffffffffffffffff

链结器命令稿和内存映射

LOAD /home/cy/cross-compiler-tools/gcc-linaro-6.2.1-2016.11-x86_64_arm-linux-gnueabihf/bin/../arm-linux-gnueabihf/libc/usr/lib/crt1.o
LOAD /home/cy/cross-compiler-tools/gcc-linaro-6.2.1-2016.11-x86_64_arm-linux-gnueabihf/bin/../arm-linux-gnueabihf/libc/usr/lib/crti.o
LOAD /home/cy/cross-compiler-tools/gcc-linaro-6.2.1-2016.11-x86_64_arm-linux-gnueabihf/bin/../lib/gcc/arm-linux-gnueabihf/6.2.1/crtbegin.o
LOAD bin/debug/obj/main_host.ov7A
LOAD bin/debug/obj/GateMPApp.ov7A
LOAD /home/cy/extern_disk/sdk/am5728/ti-processor-sdk-rtos-am57xx-evm-04.03.00.05/ipc_3_47_01_00/linux/src/transport/.libs/libtitransportrpmsg.a
LOAD /home/cy/extern_disk/sdk/am5728/ti-processor-sdk-rtos-am57xx-evm-04.03.00.05/ipc_3_47_01_00/linux/src/api/.libs/libtiipc.a
LOAD /home/cy/extern_disk/sdk/am5728/ti-processor-sdk-rtos-am57xx-evm-04.03.00.05/ipc_3_47_01_00/linux/src/utils/.libs/libtiipcutils.a
LOAD /home/cy/zip/ludev/__install/lib/libticmem.a
LOAD /home/cy/cross-compiler-tools/gcc-linaro-6.2.1-2016.11-x86_64_arm-linux-gnueabihf/bin/../arm-linux-gnueabihf/libc/usr/lib/libpthread.so
START GROUP
LOAD /home/cy/cross-compiler-tools/gcc-linaro-6.2.1-2016.11-x86_64_arm-linux-gnueabihf/bin/../arm-linux-gnueabihf/libc/lib/libpthread.so.0
LOAD /home/cy/cross-compiler-tools/gcc-linaro-6.2.1-2016.11-x86_64_arm-linux-gnueabihf/bin/../arm-linux-gnueabihf/libc/usr/lib/libpthread_nonshared.a
END GROUP
LOAD /home/cy/cross-compiler-tools/gcc-linaro-6.2.1-2016.11-x86_64_arm-linux-gnueabihf/bin/../arm-linux-gnueabihf/libc/usr/lib/libc.so
START GROUP
LOAD /home/cy/cross-compiler-tools/gcc-linaro-6.2.1-2016.11-x86_64_arm-linux-gnueabihf/bin/../arm-linux-gnueabihf/libc/lib/libc.so.6
LOAD /home/cy/cross-compiler-tools/gcc-linaro-6.2.1-2016.11-x86_64_arm-linux-gnueabihf/bin/../arm-linux-gnueabihf/libc/usr/lib/libc_nonshared.a
LOAD /home/cy/cross-compiler-tools/gcc-linaro-6.2.1-2016.11-x86_64_arm-linux-gnueabihf/bin/../arm-linux-gnueabihf/libc/lib/ld-linux-armhf.so.3
END GROUP
LOAD /home/cy/cross-compiler-tools/gcc-linaro-6.2.1-2016.11-x86_64_arm-linux-gnueabihf/bin/../arm-linux-gnueabihf/libc/usr/lib/librt.so
LOAD /home/cy/cross-compiler-tools/gcc-linaro-6.2.1-2016.11-x86_64_arm-linux-gnueabihf/bin/../lib/gcc/arm-linux-gnueabihf/6.2.1/libgcc.a
LOAD /home/cy/cross-compiler-tools/gcc-linaro-6.2.1-2016.11-x86_64_arm-linux-gnueabihf/bin/../lib/gcc/arm-linux-gnueabihf/6.2.1/../../../../arm-linux-gnueabihf/lib/libgcc_s.so
START GROUP
LOAD /home/cy/cross-compiler-tools/gcc-linaro-6.2.1-2016.11-x86_64_arm-linux-gnueabihf/bin/../lib/gcc/arm-linux-gnueabihf/6.2.1/../../../../arm-linux-gnueabihf/lib/libgcc_s.so.1
LOAD /home/cy/cross-compiler-tools/gcc-linaro-6.2.1-2016.11-x86_64_arm-linux-gnueabihf/bin/../lib/gcc/arm-linux-gnueabihf/6.2.1/libgcc.a
END GROUP
LOAD /home/cy/cross-compiler-tools/gcc-linaro-6.2.1-2016.11-x86_64_arm-linux-gnueabihf/bin/../arm-linux-gnueabihf/libc/usr/lib/libc.so
START GROUP
LOAD /home/cy/cross-compiler-tools/gcc-linaro-6.2.1-2016.11-x86_64_arm-linux-gnueabihf/bin/../arm-linux-gnueabihf/libc/lib/libc.so.6
LOAD /home/cy/cross-compiler-tools/gcc-linaro-6.2.1-2016.11-x86_64_arm-linux-gnueabihf/bin/../arm-linux-gnueabihf/libc/usr/lib/libc_nonshared.a
LOAD /home/cy/cross-compiler-tools/gcc-linaro-6.2.1-2016.11-x86_64_arm-linux-gnueabihf/bin/../arm-linux-gnueabihf/libc/lib/ld-linux-armhf.so.3
END GROUP
LOAD /home/cy/cross-compiler-tools/gcc-linaro-6.2.1-2016.11-x86_64_arm-linux-gnueabihf/bin/../lib/gcc/arm-linux-gnueabihf/6.2.1/libgcc.a
LOAD /home/cy/cross-compiler-tools/gcc-linaro-6.2.1-2016.11-x86_64_arm-linux-gnueabihf/bin/../lib/gcc/arm-linux-gnueabihf/6.2.1/../../../../arm-linux-gnueabihf/lib/libgcc_s.so
START GROUP
LOAD /home/cy/cross-compiler-tools/gcc-linaro-6.2.1-2016.11-x86_64_arm-linux-gnueabihf/bin/../lib/gcc/arm-linux-gnueabihf/6.2.1/../../../../arm-linux-gnueabihf/lib/libgcc_s.so.1
LOAD /home/cy/cross-compiler-tools/gcc-linaro-6.2.1-2016.11-x86_64_arm-linux-gnueabihf/bin/../lib/gcc/arm-linux-gnueabihf/6.2.1/libgcc.a
END GROUP
LOAD /home/cy/cross-compiler-tools/gcc-linaro-6.2.1-2016.11-x86_64_arm-linux-gnueabihf/bin/../lib/gcc/arm-linux-gnueabihf/6.2.1/crtend.o
LOAD /home/cy/cross-compiler-tools/gcc-linaro-6.2.1-2016.11-x86_64_arm-linux-gnueabihf/bin/../arm-linux-gnueabihf/libc/usr/lib/crtn.o
                [!provide]                        PROVIDE (__executable_start, 0x10000)
                0x0000000000010134                . = (0x10000 + SIZEOF_HEADERS)

.interp         0x0000000000010134       0x19
 *(.interp)
 .interp        0x0000000000010134       0x19 /home/cy/cross-compiler-tools/gcc-linaro-6.2.1-2016.11-x86_64_arm-linux-gnueabihf/bin/../arm-linux-gnueabihf/libc/usr/lib/crt1.o

.note.ABI-tag   0x0000000000010150       0x20
 .note.ABI-tag  0x0000000000010150       0x20 /home/cy/cross-compiler-tools/gcc-linaro-6.2.1-2016.11-x86_64_arm-linux-gnueabihf/bin/../arm-linux-gnueabihf/libc/usr/lib/crt1.o

.note.gnu.build-id
                0x0000000000010170       0x24
 *(.note.gnu.build-id)
 .note.gnu.build-id
                0x0000000000010170       0x24 linker stubs

.hash           0x0000000000010194      0x238
 *(.hash)
 .hash          0x0000000000010194      0x238 /home/cy/cross-compiler-tools/gcc-linaro-6.2.1-2016.11-x86_64_arm-linux-gnueabihf/bin/../arm-linux-gnueabihf/libc/usr/lib/crt1.o

.gnu.hash
 *(.gnu.hash)

.dynsym         0x00000000000103cc      0x490
 *(.dynsym)
 .dynsym        0x00000000000103cc      0x490 /home/cy/cross-compiler-tools/gcc-linaro-6.2.1-2016.11-x86_64_arm-linux-gnueabihf/bin/../arm-linux-gnueabihf/libc/usr/lib/crt1.o

.dynstr         0x000000000001085c      0x2f9
 *(.dynstr)
 .dynstr        0x000000000001085c      0x2f9 /home/cy/cross-compiler-tools/gcc-linaro-6.2.1-2016.11-x86_64_arm-linux-gnueabihf/bin/../arm-linux-gnueabihf/libc/usr/lib/crt1.o

.gnu.version    0x0000000000010b56       0x92
 *(.gnu.version)
 .gnu.version   0x0000000000010b56       0x92 /home/cy/cross-compiler-tools/gcc-linaro-6.2.1-2016.11-x86_64_arm-linux-gnueabihf/bin/../arm-linux-gnueabihf/libc/usr/lib/crt1.o

.gnu.version_d  0x0000000000010be8        0x0
 *(.gnu.version_d)
 .gnu.version_d
                0x0000000000010be8        0x0 /home/cy/cross-compiler-tools/gcc-linaro-6.2.1-2016.11-x86_64_arm-linux-gnueabihf/bin/../arm-linux-gnueabihf/libc/usr/lib/crt1.o

.gnu.version_r  0x0000000000010be8       0x50
 *(.gnu.version_r)
 .gnu.version_r
                0x0000000000010be8       0x50 /home/cy/cross-compiler-tools/gcc-linaro-6.2.1-2016.11-x86_64_arm-linux-gnueabihf/bin/../arm-linux-gnueabihf/libc/usr/lib/crt1.o

.rel.dyn        0x0000000000010c38       0x10
 *(.rel.init)
 *(.rel.text .rel.text.* .rel.gnu.linkonce.t.*)
 *(.rel.fini)
 *(.rel.rodata .rel.rodata.* .rel.gnu.linkonce.r.*)
 *(.rel.data.rel.ro .rel.data.rel.ro.* .rel.gnu.linkonce.d.rel.ro.*)
 *(.rel.data .rel.data.* .rel.gnu.linkonce.d.*)
 *(.rel.tdata .rel.tdata.* .rel.gnu.linkonce.td.*)
 *(.rel.tbss .rel.tbss.* .rel.gnu.linkonce.tb.*)
 *(.rel.ctors)
 *(.rel.dtors)
 *(.rel.got)
 .rel.got       0x0000000000010c38        0x8 /home/cy/cross-compiler-tools/gcc-linaro-6.2.1-2016.11-x86_64_arm-linux-gnueabihf/bin/../arm-linux-gnueabihf/libc/usr/lib/crt1.o
 *(.rel.bss .rel.bss.* .rel.gnu.linkonce.b.*)
 .rel.bss       0x0000000000010c40        0x8 /home/cy/cross-compiler-tools/gcc-linaro-6.2.1-2016.11-x86_64_arm-linux-gnueabihf/bin/../arm-linux-gnueabihf/libc/usr/lib/crt1.o
                [!provide]                        PROVIDE (__rel_iplt_start, .)
 *(.rel.iplt)
 .rel.iplt      0x0000000000010c48        0x0 /home/cy/cross-compiler-tools/gcc-linaro-6.2.1-2016.11-x86_64_arm-linux-gnueabihf/bin/../arm-linux-gnueabihf/libc/usr/lib/crt1.o
                [!provide]                        PROVIDE (__rel_iplt_end, .)

.rela.dyn       0x0000000000010c48        0x0
 *(.rela.init)
 *(.rela.text .rela.text.* .rela.gnu.linkonce.t.*)
 *(.rela.fini)
 *(.rela.rodata .rela.rodata.* .rela.gnu.linkonce.r.*)
 *(.rela.data .rela.data.* .rela.gnu.linkonce.d.*)
 *(.rela.tdata .rela.tdata.* .rela.gnu.linkonce.td.*)
 *(.rela.tbss .rela.tbss.* .rela.gnu.linkonce.tb.*)
 *(.rela.ctors)
 *(.rela.dtors)
 *(.rela.got)
 *(.rela.bss .rela.bss.* .rela.gnu.linkonce.b.*)
                [!provide]                        PROVIDE (__rela_iplt_start, .)
 *(.rela.iplt)
                [!provide]                        PROVIDE (__rela_iplt_end, .)

.rel.plt        0x0000000000010c48      0x210
 *(.rel.plt)
 .rel.plt       0x0000000000010c48      0x210 /home/cy/cross-compiler-tools/gcc-linaro-6.2.1-2016.11-x86_64_arm-linux-gnueabihf/bin/../arm-linux-gnueabihf/libc/usr/lib/crt1.o

.rela.plt
 *(.rela.plt)

.init           0x0000000000010e58        0xc
 *(SORT(.init))
 .init          0x0000000000010e58        0x8 /home/cy/cross-compiler-tools/gcc-linaro-6.2.1-2016.11-x86_64_arm-linux-gnueabihf/bin/../arm-linux-gnueabihf/libc/usr/lib/crti.o
                0x0000000000010e58                _init
 .init          0x0000000000010e60        0x4 /home/cy/cross-compiler-tools/gcc-linaro-6.2.1-2016.11-x86_64_arm-linux-gnueabihf/bin/../arm-linux-gnueabihf/libc/usr/lib/crtn.o

.plt            0x0000000000010e64      0x348
 *(.plt)
 .plt           0x0000000000010e64      0x348 /home/cy/cross-compiler-tools/gcc-linaro-6.2.1-2016.11-x86_64_arm-linux-gnueabihf/bin/../arm-linux-gnueabihf/libc/usr/lib/crt1.o
                0x0000000000010e7c                pthread_mutex_unlock@@GLIBC_2.4
                0x0000000000010e88                calloc@@GLIBC_2.4
                0x0000000000010e94                sem_wait@@GLIBC_2.4
                0x0000000000010ea0                pthread_mutexattr_init@@GLIBC_2.4
                0x0000000000010eac                strcmp@@GLIBC_2.4
                0x0000000000010ebc                sem_post@@GLIBC_2.4
                0x0000000000010ecc                printf@@GLIBC_2.4
                0x0000000000010ed8                fopen@@GLIBC_2.4
                0x0000000000010ee4                read@@GLIBC_2.4
                0x0000000000010ef0                pthread_mutex_destroy@@GLIBC_2.4
                0x0000000000010efc                fflush@@GLIBC_2.4
                0x0000000000010f0c                free@@GLIBC_2.4
                0x0000000000010f18                pthread_mutex_lock@@GLIBC_2.4
                0x0000000000010f24                pthread_self@@GLIBC_2.4
                0x0000000000010f34                memcpy@@GLIBC_2.4
                0x0000000000010f40                mmap64@@GLIBC_2.4
                0x0000000000010f4c                pthread_mutex_init@@GLIBC_2.4
                0x0000000000010f58                signal@@GLIBC_2.4
                0x0000000000010f64                time@@GLIBC_2.4
                0x0000000000010f70                pthread_mutex_trylock@@GLIBC_2.4
                0x0000000000010f7c                select@@GLIBC_2.4
                0x0000000000010f88                sleep@@GLIBC_2.4
                0x0000000000010f94                recvfrom@@GLIBC_2.4
                0x0000000000010fa0                __xstat@@GLIBC_2.4
                0x0000000000010fac                fwrite@@GLIBC_2.4
                0x0000000000010fb8                ioctl@@GLIBC_2.4
                0x0000000000010fc4                usleep@@GLIBC_2.4
                0x0000000000010fd0                strcpy@@GLIBC_2.4
                0x0000000000010fdc                gettimeofday@@GLIBC_2.4
                0x0000000000010fe8                fread@@GLIBC_2.4
                0x0000000000010ff4                pthread_create@@GLIBC_2.4
                0x0000000000011000                open64@@GLIBC_2.4
                0x000000000001100c                getenv@@GLIBC_2.4
                0x0000000000011018                puts@@GLIBC_2.4
                0x0000000000011028                malloc@@GLIBC_2.4
                0x0000000000011034                __libc_start_main@@GLIBC_2.4
                0x0000000000011040                strerror@@GLIBC_2.4
                0x0000000000011058                open@@GLIBC_2.4
                0x0000000000011064                pthread_mutexattr_settype@@GLIBC_2.4
                0x0000000000011070                getpid@@GLIBC_2.4
                0x000000000001107c                exit@@GLIBC_2.4
                0x0000000000011088                sem_timedwait@@GLIBC_2.4
                0x0000000000011094                mmap@@GLIBC_2.4
                0x00000000000110a4                fprintf@@GLIBC_2.4
                0x00000000000110b0                fcntl@@GLIBC_2.4
                0x00000000000110bc                __errno_location@@GLIBC_2.4
                0x00000000000110c8                bind@@GLIBC_2.4
                0x00000000000110d4                sem_init@@GLIBC_2.4
                0x00000000000110e0                strncpy@@GLIBC_2.4
                0x00000000000110ec                write@@GLIBC_2.4
                0x00000000000110f8                fileno@@GLIBC_2.4
                0x0000000000011104                difftime@@GLIBC_2.4
                0x0000000000011110                rand@@GLIBC_2.4
                0x000000000001111c                fclose@@GLIBC_2.4
                0x0000000000011128                munmap@@GLIBC_2.4
                0x0000000000011134                pthread_join@@GLIBC_2.4
                0x0000000000011140                sprintf@@GLIBC_2.4
                0x000000000001114c                getsockname@@GLIBC_2.4
                0x0000000000011158                socket@@GLIBC_2.4
                0x0000000000011164                eventfd@@GLIBC_2.7
                0x0000000000011170                abort@@GLIBC_2.4
                0x000000000001117c                close@@GLIBC_2.4
                0x0000000000011188                send@@GLIBC_2.4
                0x0000000000011194                connect@@GLIBC_2.4
                0x00000000000111a0                __assert_fail@@GLIBC_2.4

.iplt           0x00000000000111ac        0x0
 *(.iplt)
 .iplt          0x00000000000111ac        0x0 /home/cy/cross-compiler-tools/gcc-linaro-6.2.1-2016.11-x86_64_arm-linux-gnueabihf/bin/../arm-linux-gnueabihf/libc/usr/lib/crt1.o

.text           0x00000000000111b0     0x5f08
 *(.text.unlikely .text.*_unlikely .text.unlikely.*)
 *(.text.exit .text.exit.*)
 *(.text.startup .text.startup.*)
 *(.text.hot .text.hot.*)
 *(.text .stub .text.* .gnu.linkonce.t.*)
 .text          0x00000000000111b0       0x30 /home/cy/cross-compiler-tools/gcc-linaro-6.2.1-2016.11-x86_64_arm-linux-gnueabihf/bin/../arm-linux-gnueabihf/libc/usr/lib/crt1.o
                0x00000000000111b0                _start
 .text          0x00000000000111e0       0x24 /home/cy/cross-compiler-tools/gcc-linaro-6.2.1-2016.11-x86_64_arm-linux-gnueabihf/bin/../arm-linux-gnueabihf/libc/usr/lib/crti.o
 .text          0x0000000000011204       0x8c /home/cy/cross-compiler-tools/gcc-linaro-6.2.1-2016.11-x86_64_arm-linux-gnueabihf/bin/../lib/gcc/arm-linux-gnueabihf/6.2.1/crtbegin.o
 .text          0x0000000000011290      0x20c bin/debug/obj/main_host.ov7A
                0x0000000000011290                main
 .text          0x000000000001149c      0x724 bin/debug/obj/GateMPApp.ov7A
                0x00000000000114ba                GateMPApp_create
                0x00000000000116d0                GateMPApp_delete
                0x0000000000011818                GateMPApp_exec
 .text          0x0000000000011bc0      0xe0c /home/cy/extern_disk/sdk/am5728/ti-processor-sdk-rtos-am57xx-evm-04.03.00.05/ipc_3_47_01_00/linux/src/transport/.libs/libtitransportrpmsg.a(TransportRpmsg.o)
                0x0000000000011bc0                TransportRpmsg_unbind
                0x0000000000011d5c                TransportRpmsg_put
                0x0000000000012258                TransportRpmsg_Factory_delete
                0x00000000000122e4                TransportRpmsg_Factory_create
                0x00000000000124f8                TransportRpmsg_bind
                0x0000000000012758                TransportRpmsg_upCast
                0x000000000001275c                TransportRpmsg_downCast
                0x0000000000012760                TransportRpmsg_delete
                0x00000000000127cc                TransportRpmsg_create
                0x000000000001290c                TransportRpmsg_Factory_attach
                0x0000000000012968                TransportRpmsg_Factory_detach
                0x00000000000129c8                TransportRpmsg_control
 .text          0x00000000000129cc     0x1038 /home/cy/extern_disk/sdk/am5728/ti-processor-sdk-rtos-am57xx-evm-04.03.00.05/ipc_3_47_01_00/linux/src/api/.libs/libtiipc.a(MessageQ.o)
                0x00000000000129cc                MessageQ_registerTransport
                0x0000000000012a3c                MessageQ_registerTransportId
                0x0000000000012ab8                MessageQ_unregisterTransport
                0x0000000000012b00                MessageQ_unregisterTransportId
                0x0000000000012b34                MessageQ_getConfig
                0x0000000000012c14                MessageQ_setup
                0x0000000000012d90                MessageQ_destroy
                0x0000000000012ee0                MessageQ_Params_init
                0x0000000000012ee8                MessageQ_Params_init(void) static
                0x0000000000012f1c                MessageQ_delete
                0x00000000000130b0                MessageQ_open
                0x00000000000130f4                MessageQ_openQueueId
                0x0000000000013100                MessageQ_close
                0x000000000001310c                MessageQ_put
                0x000000000001324c                MessageQ_get
                0x000000000001334c                MessageQ_count
                0x0000000000013354                MessageQ_free
                0x000000000001339c                MessageQ_registerHeap
                0x00000000000133f0                MessageQ_unregisterHeap
                0x0000000000013438                MessageQ_unblock
                0x0000000000013448                MessageQ_shutdown
                0x0000000000013458                MessageQ_setReplyQueue
                0x0000000000013464                MessageQ_getQueueId
                0x0000000000013468                MessageQ_getLocalHandle
                0x0000000000013490                MessageQ_setMsgTrace
                0x00000000000134a0                MessageQ_sharedMemReq
                0x00000000000134a4                MessageQ_msgInit
                0x00000000000134ec                MessageQ_staticMsgInit
                0x0000000000013500                MessageQ_alloc
                0x000000000001357c                _MessageQ_grow
                0x00000000000135c4                MessageQ_create
                0x000000000001391c                MessageQ_bind
                0x0000000000013984                MessageQ_unbind
 .text          0x0000000000013a04      0xcb0 /home/cy/extern_disk/sdk/am5728/ti-processor-sdk-rtos-am57xx-evm-04.03.00.05/ipc_3_47_01_00/linux/src/api/.libs/libtiipc.a(NameServer.o)
                0x0000000000013a04                NameServer_setup
                0x0000000000013acc                NameServer_destroy
                0x0000000000013b94                NameServer_Params_init
                0x0000000000013c4c                NameServer_create
                0x0000000000013d18                NameServer_add
                0x0000000000013dec                NameServer_get
                0x0000000000013f08                NameServer_addUInt32
                0x0000000000013fc8                NameServer_getUInt32
                0x00000000000140dc                NameServer_getLocal
                0x00000000000141d0                NameServer_getLocalUInt32
                0x00000000000142a8                NameServer_remove
                0x0000000000014380                NameServer_removeEntry
                0x0000000000014450                NameServer_delete
                0x0000000000014524                NameServer_attach
                0x00000000000145ec                NameServer_detach
 .text          0x00000000000146b4      0x650 /home/cy/extern_disk/sdk/am5728/ti-processor-sdk-rtos-am57xx-evm-04.03.00.05/ipc_3_47_01_00/linux/src/api/.libs/libtiipc.a(Ipc.o)
                0x00000000000146b4                Ipc_transportConfig
                0x00000000000146f0                Ipc_attach
                0x00000000000147b8                Ipc_detach
                0x0000000000014884                Ipc_stop
                0x00000000000149b0                Ipc_isAttached
                0x00000000000149e8                Ipc_getConfig
                0x0000000000014a80                Ipc_start
 .text          0x0000000000014d04       0x24 /home/cy/extern_disk/sdk/am5728/ti-processor-sdk-rtos-am57xx-evm-04.03.00.05/ipc_3_47_01_00/linux/src/api/.libs/libtiipc.a(HeapStd.o)
                0x0000000000014d04                HeapStd_alloc
                0x0000000000014d0c                HeapStd_free
                0x0000000000014d14                HeapStd_handle
                0x0000000000014d20                HeapStd_upCast
                0x0000000000014d24                HeapStd_downCast
 .text          0x0000000000014d28      0xaa0 /home/cy/extern_disk/sdk/am5728/ti-processor-sdk-rtos-am57xx-evm-04.03.00.05/ipc_3_47_01_00/linux/src/api/.libs/libtiipc.a(GateMP.o)
                0x0000000000015038                GateMP_attach
                0x0000000000015100                GateMP_detach
                0x00000000000151c8                GateMP_Params_init
                0x0000000000015204                GateMP_create
                0x0000000000015254                GateMP_open
                0x00000000000153e8                GateMP_getDefaultRemote
                0x00000000000153f4                GateMP_getLocalProtect
                0x00000000000153f8                GateMP_getRemoteProtect
                0x00000000000153fc                GateMP_isSetup
                0x00000000000154dc                GateMP_delete
                0x0000000000015560                GateMP_close
                0x00000000000155a0                GateMP_stop
                0x00000000000155e4                GateMP_start
                0x00000000000157a8                GateMP_enter
                0x00000000000157b8                GateMP_leave
 .text          0x00000000000157c8      0x3f8 /home/cy/extern_disk/sdk/am5728/ti-processor-sdk-rtos-am57xx-evm-04.03.00.05/ipc_3_47_01_00/linux/src/api/.libs/libtiipc.a(GateHWSpinlock.o)
                0x00000000000157c8                GateHWSpinlock_leave
                0x0000000000015814                GateHWSpinlock_enter
                0x00000000000158c4                GateHWSpinlock_getConfig
                0x00000000000159ac                GateHWSpinlock_stop
                0x00000000000159f0                GateHWSpinlock_start
                0x0000000000015b18                GateHWSpinlock_Params_init
                0x0000000000015b4c                GateHWSpinlock_create
                0x0000000000015ba4                GateHWSpinlock_delete
 .text          0x0000000000015bc0       0xd8 /home/cy/extern_disk/sdk/am5728/ti-processor-sdk-rtos-am57xx-evm-04.03.00.05/ipc_3_47_01_00/linux/src/api/.libs/libtiipc.a(MultiProc.o)
                0x0000000000015bc0                MultiProc_getConfig
 .text          0x0000000000015c98       0xbc /home/cy/extern_disk/sdk/am5728/ti-processor-sdk-rtos-am57xx-evm-04.03.00.05/ipc_3_47_01_00/linux/src/api/.libs/libtiipc.a(GateMutex.o)
                0x0000000000015c98                GateMutex_enter
                0x0000000000015cc4                GateMutex_leave
                0x0000000000015cec                GateMutex_create
                0x0000000000015d30                GateMutex_delete
 *fill*         0x0000000000015d54        0x4 
 .text          0x0000000000015d58      0x5b8 /home/cy/extern_disk/sdk/am5728/ti-processor-sdk-rtos-am57xx-evm-04.03.00.05/ipc_3_47_01_00/linux/src/utils/.libs/libtiipcutils.a(LAD_client.o)
                0x0000000000015d58                LAD_findHandle
                0x0000000000015d84                LAD_getResponse
                0x0000000000015e08                LAD_putCommand
                0x0000000000015ea8                LAD_connect
                0x0000000000016230                LAD_disconnect
 .text          0x0000000000016310      0x120 /home/cy/extern_disk/sdk/am5728/ti-processor-sdk-rtos-am57xx-evm-04.03.00.05/ipc_3_47_01_00/linux/src/utils/.libs/libtiipcutils.a(MultiProc.o)
                0x0000000000016310                MultiProc_getBaseIdOfCluster
                0x0000000000016320                MultiProc_getId
                0x0000000000016384                MultiProc_getName
                0x00000000000163c0                MultiProc_getNumProcessors
                0x00000000000163cc                MultiProc_getNumProcsInCluster
                0x00000000000163dc                MultiProc_self
                0x00000000000163ec                MultiProc_setLocalId
 .text          0x0000000000016430       0x14 /home/cy/extern_disk/sdk/am5728/ti-processor-sdk-rtos-am57xx-evm-04.03.00.05/ipc_3_47_01_00/linux/src/utils/.libs/libtiipcutils.a(MultiProc_app.o)
                0x0000000000016430                _MultiProc_initCfg
 .text          0x0000000000016444      0x1a4 /home/cy/extern_disk/sdk/am5728/ti-processor-sdk-rtos-am57xx-evm-04.03.00.05/ipc_3_47_01_00/linux/src/utils/.libs/libtiipcutils.a(SocketFxns.o)
                0x0000000000016444                ConnectSocket
                0x0000000000016534                SocketBindAddr
 .text          0x00000000000165e8      0xa8c /home/cy/zip/ludev/__install/lib/libticmem.a(cmem.o)
                0x000000000001699c                CMEM_alloc
                0x00000000000169a8                CMEM_alloc2
                0x00000000000169ac                CMEM_allocPhys
                0x00000000000169c8                CMEM_allocPhys2
                0x00000000000169dc                CMEM_registerAlloc
                0x0000000000016a8c                CMEM_map
                0x0000000000016ad8                CMEM_unmap
                0x0000000000016b08                CMEM_allocPool
                0x0000000000016b14                CMEM_allocPool2
                0x0000000000016b18                CMEM_allocPoolPhys
                0x0000000000016b34                CMEM_allocPoolPhys2
                0x0000000000016b48                CMEM_free
                0x0000000000016bd4                CMEM_freePhys
                0x0000000000016c2c                CMEM_export_dmabuf
                0x0000000000016c80                CMEM_unregister
                0x0000000000016c84                CMEM_getPool
                0x0000000000016c8c                CMEM_getPool2
                0x0000000000016c90                CMEM_getPhys
                0x0000000000016ce8                CMEM_cacheWbInvAll
                0x0000000000016d34                CMEM_cacheWb
                0x0000000000016d90                CMEM_cacheWbInv
                0x0000000000016dec                CMEM_cacheInv
                0x0000000000016e48                CMEM_getVersion
                0x0000000000016e94                CMEM_getBlock
                0x0000000000016ea0                CMEM_getBlockAttrs
                0x0000000000016ea8                CMEM_getNumBlocks
                0x0000000000016ef0                CMEM_exit
                0x0000000000016f28                CMEM_init
 .text          0x0000000000017074       0x44 /home/cy/cross-compiler-tools/gcc-linaro-6.2.1-2016.11-x86_64_arm-linux-gnueabihf/bin/../arm-linux-gnueabihf/libc/usr/lib/libc_nonshared.a(elf-init.oS)
                0x0000000000017074                __libc_csu_init
                0x00000000000170b4                __libc_csu_fini
 .text          0x00000000000170b8        0x0 /home/cy/cross-compiler-tools/gcc-linaro-6.2.1-2016.11-x86_64_arm-linux-gnueabihf/bin/../lib/gcc/arm-linux-gnueabihf/6.2.1/crtend.o
 .text          0x00000000000170b8        0x0 /home/cy/cross-compiler-tools/gcc-linaro-6.2.1-2016.11-x86_64_arm-linux-gnueabihf/bin/../arm-linux-gnueabihf/libc/usr/lib/crtn.o
 *(.gnu.warning)
 *(.glue_7t)
 .glue_7t       0x00000000000170b8        0x0 linker stubs
 *(.glue_7)
 .glue_7        0x00000000000170b8        0x0 linker stubs
 *(.vfp11_veneer)
 .vfp11_veneer  0x00000000000170b8        0x0 linker stubs
 *(.v4_bx)
 .v4_bx         0x00000000000170b8        0x0 linker stubs

.fini           0x00000000000170b8        0x8
 *(SORT(.fini))
 .fini          0x00000000000170b8        0x4 /home/cy/cross-compiler-tools/gcc-linaro-6.2.1-2016.11-x86_64_arm-linux-gnueabihf/bin/../arm-linux-gnueabihf/libc/usr/lib/crti.o
                0x00000000000170b8                _fini
 .fini          0x00000000000170bc        0x4 /home/cy/cross-compiler-tools/gcc-linaro-6.2.1-2016.11-x86_64_arm-linux-gnueabihf/bin/../arm-linux-gnueabihf/libc/usr/lib/crtn.o
                [!provide]                        PROVIDE (__etext, .)
                [!provide]                        PROVIDE (_etext, .)
                [!provide]                        PROVIDE (etext, .)

.rodata         0x00000000000170c0     0x3ea8
 *(.rodata .rodata.* .gnu.linkonce.r.*)
 .rodata.cst4   0x00000000000170c0        0x4 /home/cy/cross-compiler-tools/gcc-linaro-6.2.1-2016.11-x86_64_arm-linux-gnueabihf/bin/../arm-linux-gnueabihf/libc/usr/lib/crt1.o
                0x00000000000170c0                _IO_stdin_used
 .rodata        0x00000000000170c4      0x150 bin/debug/obj/main_host.ov7A
 .rodata        0x0000000000017214      0x298 bin/debug/obj/GateMPApp.ov7A
 .rodata.str1.4
                0x00000000000174ac      0x6db /home/cy/extern_disk/sdk/am5728/ti-processor-sdk-rtos-am57xx-evm-04.03.00.05/ipc_3_47_01_00/linux/src/transport/.libs/libtitransportrpmsg.a(TransportRpmsg.o)
 *fill*         0x0000000000017b87        0x1 
 .rodata        0x0000000000017b88       0x3c /home/cy/extern_disk/sdk/am5728/ti-processor-sdk-rtos-am57xx-evm-04.03.00.05/ipc_3_47_01_00/linux/src/api/.libs/libtiipc.a(MessageQ.o)
 .rodata.str1.4
                0x0000000000017bc4      0x924 /home/cy/extern_disk/sdk/am5728/ti-processor-sdk-rtos-am57xx-evm-04.03.00.05/ipc_3_47_01_00/linux/src/api/.libs/libtiipc.a(MessageQ.o)
                                        0x92c (松开之前的大小)
 .rodata.str1.4
                0x00000000000184e8      0xd20 /home/cy/extern_disk/sdk/am5728/ti-processor-sdk-rtos-am57xx-evm-04.03.00.05/ipc_3_47_01_00/linux/src/api/.libs/libtiipc.a(NameServer.o)
 .rodata.str1.4
                0x0000000000019208      0x29c /home/cy/extern_disk/sdk/am5728/ti-processor-sdk-rtos-am57xx-evm-04.03.00.05/ipc_3_47_01_00/linux/src/api/.libs/libtiipc.a(Ipc.o)
 .rodata        0x00000000000194a4        0xf /home/cy/extern_disk/sdk/am5728/ti-processor-sdk-rtos-am57xx-evm-04.03.00.05/ipc_3_47_01_00/linux/src/api/.libs/libtiipc.a(GateMP.o)
 *fill*         0x00000000000194b3        0x1 
 .rodata.str1.4
                0x00000000000194b4      0x909 /home/cy/extern_disk/sdk/am5728/ti-processor-sdk-rtos-am57xx-evm-04.03.00.05/ipc_3_47_01_00/linux/src/api/.libs/libtiipc.a(GateMP.o)
 *fill*         0x0000000000019dbd        0x3 
 .rodata        0x0000000000019dc0       0x37 /home/cy/extern_disk/sdk/am5728/ti-processor-sdk-rtos-am57xx-evm-04.03.00.05/ipc_3_47_01_00/linux/src/api/.libs/libtiipc.a(GateHWSpinlock.o)
 *fill*         0x0000000000019df7        0x1 
 .rodata.str1.4
                0x0000000000019df8      0x23d /home/cy/extern_disk/sdk/am5728/ti-processor-sdk-rtos-am57xx-evm-04.03.00.05/ipc_3_47_01_00/linux/src/api/.libs/libtiipc.a(GateHWSpinlock.o)
                                        0x241 (松开之前的大小)
 *fill*         0x000000000001a035        0x3 
 .rodata        0x000000000001a038       0x14 /home/cy/extern_disk/sdk/am5728/ti-processor-sdk-rtos-am57xx-evm-04.03.00.05/ipc_3_47_01_00/linux/src/api/.libs/libtiipc.a(MultiProc.o)
 .rodata.str1.4
                0x000000000001a04c      0x100 /home/cy/extern_disk/sdk/am5728/ti-processor-sdk-rtos-am57xx-evm-04.03.00.05/ipc_3_47_01_00/linux/src/api/.libs/libtiipc.a(MultiProc.o)
                                        0x10c (松开之前的大小)
 .rodata        0x000000000001a14c       0x20 /home/cy/extern_disk/sdk/am5728/ti-processor-sdk-rtos-am57xx-evm-04.03.00.05/ipc_3_47_01_00/linux/src/api/.libs/libtiipc.a(GateMutex.o)
 .rodata.str1.4
                0x000000000001a16c       0x35 /home/cy/extern_disk/sdk/am5728/ti-processor-sdk-rtos-am57xx-evm-04.03.00.05/ipc_3_47_01_00/linux/src/api/.libs/libtiipc.a(GateMutex.o)
 *fill*         0x000000000001a1a1        0x3 
 .rodata.str1.4
                0x000000000001a1a4      0x306 /home/cy/extern_disk/sdk/am5728/ti-processor-sdk-rtos-am57xx-evm-04.03.00.05/ipc_3_47_01_00/linux/src/utils/.libs/libtiipcutils.a(LAD_client.o)
                                        0x30a (松开之前的大小)
 *fill*         0x000000000001a4aa        0x2 
 .rodata        0x000000000001a4ac       0x39 /home/cy/extern_disk/sdk/am5728/ti-processor-sdk-rtos-am57xx-evm-04.03.00.05/ipc_3_47_01_00/linux/src/utils/.libs/libtiipcutils.a(MultiProc.o)
 *fill*         0x000000000001a4e5        0x3 
 .rodata.str1.4
                0x000000000001a4e8       0x5e /home/cy/extern_disk/sdk/am5728/ti-processor-sdk-rtos-am57xx-evm-04.03.00.05/ipc_3_47_01_00/linux/src/utils/.libs/libtiipcutils.a(MultiProc.o)
 *fill*         0x000000000001a546        0x2 
 .rodata.str1.4
                0x000000000001a548      0x101 /home/cy/extern_disk/sdk/am5728/ti-processor-sdk-rtos-am57xx-evm-04.03.00.05/ipc_3_47_01_00/linux/src/utils/.libs/libtiipcutils.a(SocketFxns.o)
 *fill*         0x000000000001a649        0x3 
 .rodata.str1.4
                0x000000000001a64c      0x91c /home/cy/zip/ludev/__install/lib/libticmem.a(cmem.o)
                                        0x91b (松开之前的大小)

.rodata1
 *(.rodata1)

.ARM.extab      0x000000000001af68        0x0
 *(.ARM.extab* .gnu.linkonce.armextab.*)
 .ARM.extab     0x000000000001af68        0x0 /home/cy/cross-compiler-tools/gcc-linaro-6.2.1-2016.11-x86_64_arm-linux-gnueabihf/bin/../arm-linux-gnueabihf/libc/usr/lib/crt1.o
                [!provide]                        PROVIDE (__exidx_start, .)

.ARM.exidx      0x000000000001af68        0x8
 *(.ARM.exidx* .gnu.linkonce.armexidx.*)
 .ARM.exidx     0x000000000001af68        0x8 /home/cy/cross-compiler-tools/gcc-linaro-6.2.1-2016.11-x86_64_arm-linux-gnueabihf/bin/../arm-linux-gnueabihf/libc/usr/lib/crt1.o
                [!provide]                        PROVIDE (__exidx_end, .)

.eh_frame_hdr
 *(.eh_frame_hdr)
 *(.eh_frame_entry .eh_frame_entry.*)

.eh_frame       0x000000000001af70        0x4
 *(.eh_frame)
 .eh_frame      0x000000000001af70        0x4 /home/cy/cross-compiler-tools/gcc-linaro-6.2.1-2016.11-x86_64_arm-linux-gnueabihf/bin/../lib/gcc/arm-linux-gnueabihf/6.2.1/crtend.o
 *(.eh_frame.*)

.gcc_except_table
 *(.gcc_except_table .gcc_except_table.*)

.gnu_extab
 *(.gnu_extab*)

.exception_ranges
 *(.exception_ranges .exception_ranges*)
                0x000000000002b000                . = DATA_SEGMENT_ALIGN (0x10000, 0x1000)

.eh_frame
 *(.eh_frame)
 *(.eh_frame.*)

.gnu_extab
 *(.gnu_extab)

.gcc_except_table
 *(.gcc_except_table .gcc_except_table.*)

.exception_ranges
 *(.exception_ranges .exception_ranges*)

.tdata
 *(.tdata .tdata.* .gnu.linkonce.td.*)

.tbss
 *(.tbss .tbss.* .gnu.linkonce.tb.*)
 *(.tcommon)

.preinit_array  0x000000000002b000        0x0
                [!provide]                        PROVIDE (__preinit_array_start, .)
 *(.preinit_array)
                [!provide]                        PROVIDE (__preinit_array_end, .)

.init_array     0x000000000002b000        0x4
                0x000000000002b000                PROVIDE (__init_array_start, .)
 *(SORT(.init_array.*) SORT(.ctors.*))
 *(.init_array EXCLUDE_FILE(*crtend?.o *crtend.o *crtbegin?.o *crtbegin.o) .ctors)
 .init_array    0x000000000002b000        0x4 /home/cy/cross-compiler-tools/gcc-linaro-6.2.1-2016.11-x86_64_arm-linux-gnueabihf/bin/../lib/gcc/arm-linux-gnueabihf/6.2.1/crtbegin.o
                0x000000000002b004                PROVIDE (__init_array_end, .)

.fini_array     0x000000000002b004        0x4
                [!provide]                        PROVIDE (__fini_array_start, .)
 *(SORT(.fini_array.*) SORT(.dtors.*))
 *(.fini_array EXCLUDE_FILE(*crtend?.o *crtend.o *crtbegin?.o *crtbegin.o) .dtors)
 .fini_array    0x000000000002b004        0x4 /home/cy/cross-compiler-tools/gcc-linaro-6.2.1-2016.11-x86_64_arm-linux-gnueabihf/bin/../lib/gcc/arm-linux-gnueabihf/6.2.1/crtbegin.o
                [!provide]                        PROVIDE (__fini_array_end, .)

.ctors
 *crtbegin.o(.ctors)
 *crtbegin?.o(.ctors)
 *(EXCLUDE_FILE(*crtend?.o *crtend.o) .ctors)
 *(SORT(.ctors.*))
 *(.ctors)

.dtors
 *crtbegin.o(.dtors)
 *crtbegin?.o(.dtors)
 *(EXCLUDE_FILE(*crtend?.o *crtend.o) .dtors)
 *(SORT(.dtors.*))
 *(.dtors)

.jcr            0x000000000002b008        0x4
 *(.jcr)
 .jcr           0x000000000002b008        0x0 /home/cy/cross-compiler-tools/gcc-linaro-6.2.1-2016.11-x86_64_arm-linux-gnueabihf/bin/../lib/gcc/arm-linux-gnueabihf/6.2.1/crtbegin.o
 .jcr           0x000000000002b008        0x4 /home/cy/cross-compiler-tools/gcc-linaro-6.2.1-2016.11-x86_64_arm-linux-gnueabihf/bin/../lib/gcc/arm-linux-gnueabihf/6.2.1/crtend.o

.data.rel.ro
 *(.data.rel.ro.local* .gnu.linkonce.d.rel.ro.local.*)
 *(.data.rel.ro .data.rel.ro.* .gnu.linkonce.d.rel.ro.*)

.dynamic        0x000000000002b00c       0xf8
 *(.dynamic)
 .dynamic       0x000000000002b00c       0xf8 /home/cy/cross-compiler-tools/gcc-linaro-6.2.1-2016.11-x86_64_arm-linux-gnueabihf/bin/../arm-linux-gnueabihf/libc/usr/lib/crt1.o
                0x000000000002b00c                _DYNAMIC
                0x000000000002b104                . = DATA_SEGMENT_RELRO_END (., 0x0)

.got            0x000000000002b104      0x120
 *(.got.plt)
 .got.plt       0x000000000002b104      0x114 /home/cy/cross-compiler-tools/gcc-linaro-6.2.1-2016.11-x86_64_arm-linux-gnueabihf/bin/../arm-linux-gnueabihf/libc/usr/lib/crt1.o
                0x000000000002b104                _GLOBAL_OFFSET_TABLE_
 *(.igot.plt)
 .igot.plt      0x000000000002b218        0x0 /home/cy/cross-compiler-tools/gcc-linaro-6.2.1-2016.11-x86_64_arm-linux-gnueabihf/bin/../arm-linux-gnueabihf/libc/usr/lib/crt1.o
 *(.got)
 .got           0x000000000002b218        0xc /home/cy/cross-compiler-tools/gcc-linaro-6.2.1-2016.11-x86_64_arm-linux-gnueabihf/bin/../arm-linux-gnueabihf/libc/usr/lib/crt1.o
 *(.igot)

.data           0x000000000002b224     0x2270
                [!provide]                        PROVIDE (__data_start, .)
 *(.data .data.* .gnu.linkonce.d.*)
 .data          0x000000000002b224        0x4 /home/cy/cross-compiler-tools/gcc-linaro-6.2.1-2016.11-x86_64_arm-linux-gnueabihf/bin/../arm-linux-gnueabihf/libc/usr/lib/crt1.o
                0x000000000002b224                data_start
                0x000000000002b224                __data_start
 .data          0x000000000002b228        0x0 /home/cy/cross-compiler-tools/gcc-linaro-6.2.1-2016.11-x86_64_arm-linux-gnueabihf/bin/../arm-linux-gnueabihf/libc/usr/lib/crti.o
 .data          0x000000000002b228        0x4 /home/cy/cross-compiler-tools/gcc-linaro-6.2.1-2016.11-x86_64_arm-linux-gnueabihf/bin/../lib/gcc/arm-linux-gnueabihf/6.2.1/crtbegin.o
                0x000000000002b228                __dso_handle
 .data          0x000000000002b22c        0x0 bin/debug/obj/main_host.ov7A
 .data          0x000000000002b22c        0x0 bin/debug/obj/GateMPApp.ov7A
 .data          0x000000000002b22c     0x20fc /home/cy/extern_disk/sdk/am5728/ti-processor-sdk-rtos-am57xx-evm-04.03.00.05/ipc_3_47_01_00/linux/src/transport/.libs/libtitransportrpmsg.a(TransportRpmsg.o)
                0x000000000002b22c                TransportRpmsg_module
                0x000000000002b230                TransportRpmsg_fxns
                0x000000000002b23c                TransportRpmsg_Factory
                0x000000000002b24c                TransportRpmsg_state
 .data          0x000000000002d328       0xc4 /home/cy/extern_disk/sdk/am5728/ti-processor-sdk-rtos-am57xx-evm-04.03.00.05/ipc_3_47_01_00/linux/src/api/.libs/libtiipc.a(MessageQ.o)
                0x000000000002d328                MessageQ_module
 .data          0x000000000002d3ec        0x0 /home/cy/extern_disk/sdk/am5728/ti-processor-sdk-rtos-am57xx-evm-04.03.00.05/ipc_3_47_01_00/linux/src/api/.libs/libtiipc.a(NameServer.o)
 .data          0x000000000002d3ec       0x50 /home/cy/extern_disk/sdk/am5728/ti-processor-sdk-rtos-am57xx-evm-04.03.00.05/ipc_3_47_01_00/linux/src/api/.libs/libtiipc.a(Ipc.o)
 .data          0x000000000002d43c        0xc /home/cy/extern_disk/sdk/am5728/ti-processor-sdk-rtos-am57xx-evm-04.03.00.05/ipc_3_47_01_00/linux/src/api/.libs/libtiipc.a(HeapStd.o)
                0x000000000002d440                HeapStd_Fxns
 .data          0x000000000002d448       0x14 /home/cy/extern_disk/sdk/am5728/ti-processor-sdk-rtos-am57xx-evm-04.03.00.05/ipc_3_47_01_00/linux/src/api/.libs/libtiipc.a(GateMP.o)
 .data          0x000000000002d45c       0x10 /home/cy/extern_disk/sdk/am5728/ti-processor-sdk-rtos-am57xx-evm-04.03.00.05/ipc_3_47_01_00/linux/src/api/.libs/libtiipc.a(GateHWSpinlock.o)
 .data          0x000000000002d46c        0x0 /home/cy/extern_disk/sdk/am5728/ti-processor-sdk-rtos-am57xx-evm-04.03.00.05/ipc_3_47_01_00/linux/src/api/.libs/libtiipc.a(MultiProc.o)
 .data          0x000000000002d46c        0x0 /home/cy/extern_disk/sdk/am5728/ti-processor-sdk-rtos-am57xx-evm-04.03.00.05/ipc_3_47_01_00/linux/src/api/.libs/libtiipc.a(GateMutex.o)
 .data          0x000000000002d46c       0x18 /home/cy/extern_disk/sdk/am5728/ti-processor-sdk-rtos-am57xx-evm-04.03.00.05/ipc_3_47_01_00/linux/src/utils/.libs/libtiipcutils.a(LAD_client.o)
 .data          0x000000000002d484        0x0 /home/cy/extern_disk/sdk/am5728/ti-processor-sdk-rtos-am57xx-evm-04.03.00.05/ipc_3_47_01_00/linux/src/utils/.libs/libtiipcutils.a(MultiProc.o)
 .data          0x000000000002d484        0x0 /home/cy/extern_disk/sdk/am5728/ti-processor-sdk-rtos-am57xx-evm-04.03.00.05/ipc_3_47_01_00/linux/src/utils/.libs/libtiipcutils.a(MultiProc_app.o)
 .data          0x000000000002d484        0x0 /home/cy/extern_disk/sdk/am5728/ti-processor-sdk-rtos-am57xx-evm-04.03.00.05/ipc_3_47_01_00/linux/src/utils/.libs/libtiipcutils.a(SocketFxns.o)
 .data          0x000000000002d484       0x10 /home/cy/zip/ludev/__install/lib/libticmem.a(cmem.o)
                0x000000000002d488                CMEM_DEFAULTPARAMS
 .data          0x000000000002d494        0x0 /home/cy/cross-compiler-tools/gcc-linaro-6.2.1-2016.11-x86_64_arm-linux-gnueabihf/bin/../arm-linux-gnueabihf/libc/usr/lib/libc_nonshared.a(elf-init.oS)
 .data          0x000000000002d494        0x0 /home/cy/cross-compiler-tools/gcc-linaro-6.2.1-2016.11-x86_64_arm-linux-gnueabihf/bin/../lib/gcc/arm-linux-gnueabihf/6.2.1/crtend.o
 .data          0x000000000002d494        0x0 /home/cy/cross-compiler-tools/gcc-linaro-6.2.1-2016.11-x86_64_arm-linux-gnueabihf/bin/../arm-linux-gnueabihf/libc/usr/lib/crtn.o

.tm_clone_table
                0x000000000002d494        0x0
 .tm_clone_table
                0x000000000002d494        0x0 /home/cy/cross-compiler-tools/gcc-linaro-6.2.1-2016.11-x86_64_arm-linux-gnueabihf/bin/../lib/gcc/arm-linux-gnueabihf/6.2.1/crtbegin.o
 .tm_clone_table
                0x000000000002d494        0x0 /home/cy/cross-compiler-tools/gcc-linaro-6.2.1-2016.11-x86_64_arm-linux-gnueabihf/bin/../lib/gcc/arm-linux-gnueabihf/6.2.1/crtend.o

.data1
 *(.data1)
                0x000000000002d494                _edata = .
                [!provide]                        PROVIDE (edata, .)
                0x000000000002d494                . = .
                0x000000000002d494                __bss_start = .
                0x000000000002d494                __bss_start__ = .

.bss            0x000000000002d498     0x13a8
 *(.dynbss)
 .dynbss        0x000000000002d498        0x4 /home/cy/cross-compiler-tools/gcc-linaro-6.2.1-2016.11-x86_64_arm-linux-gnueabihf/bin/../arm-linux-gnueabihf/libc/usr/lib/crt1.o
                0x000000000002d498                stderr@@GLIBC_2.4
 *(.bss .bss.* .gnu.linkonce.b.*)
 .bss           0x000000000002d49c        0x0 /home/cy/cross-compiler-tools/gcc-linaro-6.2.1-2016.11-x86_64_arm-linux-gnueabihf/bin/../arm-linux-gnueabihf/libc/usr/lib/crt1.o
 .bss           0x000000000002d49c        0x0 /home/cy/cross-compiler-tools/gcc-linaro-6.2.1-2016.11-x86_64_arm-linux-gnueabihf/bin/../arm-linux-gnueabihf/libc/usr/lib/crti.o
 .bss           0x000000000002d49c        0x1 /home/cy/cross-compiler-tools/gcc-linaro-6.2.1-2016.11-x86_64_arm-linux-gnueabihf/bin/../lib/gcc/arm-linux-gnueabihf/6.2.1/crtbegin.o
 .bss           0x000000000002d49d        0x0 bin/debug/obj/main_host.ov7A
 *fill*         0x000000000002d49d        0x3 
 .bss           0x000000000002d4a0       0x20 bin/debug/obj/GateMPApp.ov7A
 .bss           0x000000000002d4c0        0x1 /home/cy/extern_disk/sdk/am5728/ti-processor-sdk-rtos-am57xx-evm-04.03.00.05/ipc_3_47_01_00/linux/src/transport/.libs/libtitransportrpmsg.a(TransportRpmsg.o)
                0x000000000002d4c0                _TransportMessageQ_verbose
 .bss           0x000000000002d4c1        0x1 /home/cy/extern_disk/sdk/am5728/ti-processor-sdk-rtos-am57xx-evm-04.03.00.05/ipc_3_47_01_00/linux/src/api/.libs/libtiipc.a(MessageQ.o)
                0x000000000002d4c1                _MessageQ_verbose
 .bss           0x000000000002d4c2        0x1 /home/cy/extern_disk/sdk/am5728/ti-processor-sdk-rtos-am57xx-evm-04.03.00.05/ipc_3_47_01_00/linux/src/api/.libs/libtiipc.a(NameServer.o)
                0x000000000002d4c2                _NameServer_verbose
 *fill*         0x000000000002d4c3        0x1 
 .bss           0x000000000002d4c4        0x8 /home/cy/extern_disk/sdk/am5728/ti-processor-sdk-rtos-am57xx-evm-04.03.00.05/ipc_3_47_01_00/linux/src/api/.libs/libtiipc.a(Ipc.o)
                0x000000000002d4c4                _Ipc_verbose
 .bss           0x000000000002d4cc        0x0 /home/cy/extern_disk/sdk/am5728/ti-processor-sdk-rtos-am57xx-evm-04.03.00.05/ipc_3_47_01_00/linux/src/api/.libs/libtiipc.a(HeapStd.o)
 .bss           0x000000000002d4cc       0x44 /home/cy/extern_disk/sdk/am5728/ti-processor-sdk-rtos-am57xx-evm-04.03.00.05/ipc_3_47_01_00/linux/src/api/.libs/libtiipc.a(GateMP.o)
                0x000000000002d4cc                _GateMP_verbose
 .bss           0x000000000002d510       0x10 /home/cy/extern_disk/sdk/am5728/ti-processor-sdk-rtos-am57xx-evm-04.03.00.05/ipc_3_47_01_00/linux/src/api/.libs/libtiipc.a(GateHWSpinlock.o)
                0x000000000002d510                _GateHWSpinlock_verbose
 .bss           0x000000000002d520        0x1 /home/cy/extern_disk/sdk/am5728/ti-processor-sdk-rtos-am57xx-evm-04.03.00.05/ipc_3_47_01_00/linux/src/api/.libs/libtiipc.a(MultiProc.o)
                0x000000000002d520                _MultiProc_verbose
 .bss           0x000000000002d521        0x0 /home/cy/extern_disk/sdk/am5728/ti-processor-sdk-rtos-am57xx-evm-04.03.00.05/ipc_3_47_01_00/linux/src/api/.libs/libtiipc.a(GateMutex.o)
 *fill*         0x000000000002d521        0x3 
 .bss           0x000000000002d524     0x1189 /home/cy/extern_disk/sdk/am5728/ti-processor-sdk-rtos-am57xx-evm-04.03.00.05/ipc_3_47_01_00/linux/src/utils/.libs/libtiipcutils.a(LAD_client.o)
                0x000000000002e6a4                _LAD_Client_verbose
 .bss           0x000000000002e6ad        0x0 /home/cy/extern_disk/sdk/am5728/ti-processor-sdk-rtos-am57xx-evm-04.03.00.05/ipc_3_47_01_00/linux/src/utils/.libs/libtiipcutils.a(MultiProc.o)
 .bss           0x000000000002e6ad        0x0 /home/cy/extern_disk/sdk/am5728/ti-processor-sdk-rtos-am57xx-evm-04.03.00.05/ipc_3_47_01_00/linux/src/utils/.libs/libtiipcutils.a(MultiProc_app.o)
 .bss           0x000000000002e6ad        0x1 /home/cy/extern_disk/sdk/am5728/ti-processor-sdk-rtos-am57xx-evm-04.03.00.05/ipc_3_47_01_00/linux/src/utils/.libs/libtiipcutils.a(SocketFxns.o)
                0x000000000002e6ad                _SocketFxns_verbose
 *fill*         0x000000000002e6ae        0x2 
 .bss           0x000000000002e6b0        0x4 /home/cy/zip/ludev/__install/lib/libticmem.a(cmem.o)
 .bss           0x000000000002e6b4        0x0 /home/cy/cross-compiler-tools/gcc-linaro-6.2.1-2016.11-x86_64_arm-linux-gnueabihf/bin/../arm-linux-gnueabihf/libc/usr/lib/libc_nonshared.a(elf-init.oS)
 .bss           0x000000000002e6b4        0x0 /home/cy/cross-compiler-tools/gcc-linaro-6.2.1-2016.11-x86_64_arm-linux-gnueabihf/bin/../lib/gcc/arm-linux-gnueabihf/6.2.1/crtend.o
 .bss           0x000000000002e6b4        0x0 /home/cy/cross-compiler-tools/gcc-linaro-6.2.1-2016.11-x86_64_arm-linux-gnueabihf/bin/../arm-linux-gnueabihf/libc/usr/lib/crtn.o
 *(COMMON)
 COMMON         0x000000000002e6b4        0xc bin/debug/obj/GateMPApp.ov7A
                0x000000000002e6b4                cmemAttrs
 COMMON         0x000000000002e6c0        0xc /home/cy/extern_disk/sdk/am5728/ti-processor-sdk-rtos-am57xx-evm-04.03.00.05/ipc_3_47_01_00/linux/src/api/.libs/libtiipc.a(Ipc.o)
                0x000000000002e6c0                _GateHWSpinlock_cfgParams
 COMMON         0x000000000002e6cc      0x174 /home/cy/extern_disk/sdk/am5728/ti-processor-sdk-rtos-am57xx-evm-04.03.00.05/ipc_3_47_01_00/linux/src/utils/.libs/libtiipcutils.a(MultiProc_app.o)
                0x000000000002e6cc                _MultiProc_cfg
                0x000000000002e840                . = ALIGN ((. != 0x0)?0x4:0x1)
                0x000000000002e840                _bss_end__ = .
                0x000000000002e840                __bss_end__ = .
                0x000000000002e840                . = ALIGN (0x4)
                0x000000000002e840                . = SEGMENT_START ("ldata-segment", .)
                0x000000000002e840                . = ALIGN (0x4)
                0x000000000002e840                __end__ = .
                0x000000000002e840                _end = .
                [!provide]                        PROVIDE (end, .)
                0x000000000002e840                . = DATA_SEGMENT_END (.)

.stab
 *(.stab)

.stabstr
 *(.stabstr)

.stab.excl
 *(.stab.excl)

.stab.exclstr
 *(.stab.exclstr)

.stab.index
 *(.stab.index)

.stab.indexstr
 *(.stab.indexstr)

.comment        0x0000000000000000       0x2d
 *(.comment)
 .comment       0x0000000000000000       0x2d /home/cy/cross-compiler-tools/gcc-linaro-6.2.1-2016.11-x86_64_arm-linux-gnueabihf/bin/../arm-linux-gnueabihf/libc/usr/lib/crt1.o
                                         0x2e (松开之前的大小)
 .comment       0x000000000000002d       0x2e /home/cy/cross-compiler-tools/gcc-linaro-6.2.1-2016.11-x86_64_arm-linux-gnueabihf/bin/../lib/gcc/arm-linux-gnueabihf/6.2.1/crtbegin.o
 .comment       0x000000000000002d       0x2e bin/debug/obj/main_host.ov7A
 .comment       0x000000000000002d       0x2e bin/debug/obj/GateMPApp.ov7A
 .comment       0x000000000000002d       0x2e /home/cy/extern_disk/sdk/am5728/ti-processor-sdk-rtos-am57xx-evm-04.03.00.05/ipc_3_47_01_00/linux/src/transport/.libs/libtitransportrpmsg.a(TransportRpmsg.o)
 .comment       0x000000000000002d       0x2e /home/cy/extern_disk/sdk/am5728/ti-processor-sdk-rtos-am57xx-evm-04.03.00.05/ipc_3_47_01_00/linux/src/api/.libs/libtiipc.a(MessageQ.o)
 .comment       0x000000000000002d       0x2e /home/cy/extern_disk/sdk/am5728/ti-processor-sdk-rtos-am57xx-evm-04.03.00.05/ipc_3_47_01_00/linux/src/api/.libs/libtiipc.a(NameServer.o)
 .comment       0x000000000000002d       0x2e /home/cy/extern_disk/sdk/am5728/ti-processor-sdk-rtos-am57xx-evm-04.03.00.05/ipc_3_47_01_00/linux/src/api/.libs/libtiipc.a(Ipc.o)
 .comment       0x000000000000002d       0x2e /home/cy/extern_disk/sdk/am5728/ti-processor-sdk-rtos-am57xx-evm-04.03.00.05/ipc_3_47_01_00/linux/src/api/.libs/libtiipc.a(HeapStd.o)
 .comment       0x000000000000002d       0x2e /home/cy/extern_disk/sdk/am5728/ti-processor-sdk-rtos-am57xx-evm-04.03.00.05/ipc_3_47_01_00/linux/src/api/.libs/libtiipc.a(GateMP.o)
 .comment       0x000000000000002d       0x2e /home/cy/extern_disk/sdk/am5728/ti-processor-sdk-rtos-am57xx-evm-04.03.00.05/ipc_3_47_01_00/linux/src/api/.libs/libtiipc.a(GateHWSpinlock.o)
 .comment       0x000000000000002d       0x2e /home/cy/extern_disk/sdk/am5728/ti-processor-sdk-rtos-am57xx-evm-04.03.00.05/ipc_3_47_01_00/linux/src/api/.libs/libtiipc.a(MultiProc.o)
 .comment       0x000000000000002d       0x2e /home/cy/extern_disk/sdk/am5728/ti-processor-sdk-rtos-am57xx-evm-04.03.00.05/ipc_3_47_01_00/linux/src/api/.libs/libtiipc.a(GateMutex.o)
 .comment       0x000000000000002d       0x2e /home/cy/extern_disk/sdk/am5728/ti-processor-sdk-rtos-am57xx-evm-04.03.00.05/ipc_3_47_01_00/linux/src/utils/.libs/libtiipcutils.a(LAD_client.o)
 .comment       0x000000000000002d       0x2e /home/cy/extern_disk/sdk/am5728/ti-processor-sdk-rtos-am57xx-evm-04.03.00.05/ipc_3_47_01_00/linux/src/utils/.libs/libtiipcutils.a(MultiProc.o)
 .comment       0x000000000000002d       0x2e /home/cy/extern_disk/sdk/am5728/ti-processor-sdk-rtos-am57xx-evm-04.03.00.05/ipc_3_47_01_00/linux/src/utils/.libs/libtiipcutils.a(MultiProc_app.o)
 .comment       0x000000000000002d       0x2e /home/cy/extern_disk/sdk/am5728/ti-processor-sdk-rtos-am57xx-evm-04.03.00.05/ipc_3_47_01_00/linux/src/utils/.libs/libtiipcutils.a(SocketFxns.o)
 .comment       0x000000000000002d       0x2e /home/cy/zip/ludev/__install/lib/libticmem.a(cmem.o)
 .comment       0x000000000000002d       0x2e /home/cy/cross-compiler-tools/gcc-linaro-6.2.1-2016.11-x86_64_arm-linux-gnueabihf/bin/../arm-linux-gnueabihf/libc/usr/lib/libc_nonshared.a(elf-init.oS)
 .comment       0x000000000000002d       0x2e /home/cy/cross-compiler-tools/gcc-linaro-6.2.1-2016.11-x86_64_arm-linux-gnueabihf/bin/../lib/gcc/arm-linux-gnueabihf/6.2.1/crtend.o

.ARM.attributes
                0x0000000000000000       0x33
 .ARM.attributes
                0x0000000000000000       0x33 /home/cy/cross-compiler-tools/gcc-linaro-6.2.1-2016.11-x86_64_arm-linux-gnueabihf/bin/../arm-linux-gnueabihf/libc/usr/lib/crt1.o
 .ARM.attributes
                0x0000000000000033       0x23 /home/cy/cross-compiler-tools/gcc-linaro-6.2.1-2016.11-x86_64_arm-linux-gnueabihf/bin/../arm-linux-gnueabihf/libc/usr/lib/crti.o
 .ARM.attributes
                0x0000000000000056       0x33 /home/cy/cross-compiler-tools/gcc-linaro-6.2.1-2016.11-x86_64_arm-linux-gnueabihf/bin/../lib/gcc/arm-linux-gnueabihf/6.2.1/crtbegin.o
 .ARM.attributes
                0x0000000000000089       0x33 bin/debug/obj/main_host.ov7A
 .ARM.attributes
                0x00000000000000bc       0x33 bin/debug/obj/GateMPApp.ov7A
 .ARM.attributes
                0x00000000000000ef       0x33 /home/cy/extern_disk/sdk/am5728/ti-processor-sdk-rtos-am57xx-evm-04.03.00.05/ipc_3_47_01_00/linux/src/transport/.libs/libtitransportrpmsg.a(TransportRpmsg.o)
 .ARM.attributes
                0x0000000000000122       0x33 /home/cy/extern_disk/sdk/am5728/ti-processor-sdk-rtos-am57xx-evm-04.03.00.05/ipc_3_47_01_00/linux/src/api/.libs/libtiipc.a(MessageQ.o)
 .ARM.attributes
                0x0000000000000155       0x33 /home/cy/extern_disk/sdk/am5728/ti-processor-sdk-rtos-am57xx-evm-04.03.00.05/ipc_3_47_01_00/linux/src/api/.libs/libtiipc.a(NameServer.o)
 .ARM.attributes
                0x0000000000000188       0x33 /home/cy/extern_disk/sdk/am5728/ti-processor-sdk-rtos-am57xx-evm-04.03.00.05/ipc_3_47_01_00/linux/src/api/.libs/libtiipc.a(Ipc.o)
 .ARM.attributes
                0x00000000000001bb       0x33 /home/cy/extern_disk/sdk/am5728/ti-processor-sdk-rtos-am57xx-evm-04.03.00.05/ipc_3_47_01_00/linux/src/api/.libs/libtiipc.a(HeapStd.o)
 .ARM.attributes
                0x00000000000001ee       0x33 /home/cy/extern_disk/sdk/am5728/ti-processor-sdk-rtos-am57xx-evm-04.03.00.05/ipc_3_47_01_00/linux/src/api/.libs/libtiipc.a(GateMP.o)
 .ARM.attributes
                0x0000000000000221       0x33 /home/cy/extern_disk/sdk/am5728/ti-processor-sdk-rtos-am57xx-evm-04.03.00.05/ipc_3_47_01_00/linux/src/api/.libs/libtiipc.a(GateHWSpinlock.o)
 .ARM.attributes
                0x0000000000000254       0x33 /home/cy/extern_disk/sdk/am5728/ti-processor-sdk-rtos-am57xx-evm-04.03.00.05/ipc_3_47_01_00/linux/src/api/.libs/libtiipc.a(MultiProc.o)
 .ARM.attributes
                0x0000000000000287       0x33 /home/cy/extern_disk/sdk/am5728/ti-processor-sdk-rtos-am57xx-evm-04.03.00.05/ipc_3_47_01_00/linux/src/api/.libs/libtiipc.a(GateMutex.o)
 .ARM.attributes
                0x00000000000002ba       0x33 /home/cy/extern_disk/sdk/am5728/ti-processor-sdk-rtos-am57xx-evm-04.03.00.05/ipc_3_47_01_00/linux/src/utils/.libs/libtiipcutils.a(LAD_client.o)
 .ARM.attributes
                0x00000000000002ed       0x33 /home/cy/extern_disk/sdk/am5728/ti-processor-sdk-rtos-am57xx-evm-04.03.00.05/ipc_3_47_01_00/linux/src/utils/.libs/libtiipcutils.a(MultiProc.o)
 .ARM.attributes
                0x0000000000000320       0x33 /home/cy/extern_disk/sdk/am5728/ti-processor-sdk-rtos-am57xx-evm-04.03.00.05/ipc_3_47_01_00/linux/src/utils/.libs/libtiipcutils.a(MultiProc_app.o)
 .ARM.attributes
                0x0000000000000353       0x33 /home/cy/extern_disk/sdk/am5728/ti-processor-sdk-rtos-am57xx-evm-04.03.00.05/ipc_3_47_01_00/linux/src/utils/.libs/libtiipcutils.a(SocketFxns.o)
 .ARM.attributes
                0x0000000000000386       0x33 /home/cy/zip/ludev/__install/lib/libticmem.a(cmem.o)
 .ARM.attributes
                0x00000000000003b9       0x35 /home/cy/cross-compiler-tools/gcc-linaro-6.2.1-2016.11-x86_64_arm-linux-gnueabihf/bin/../arm-linux-gnueabihf/libc/usr/lib/libc_nonshared.a(elf-init.oS)
 .ARM.attributes
                0x00000000000003ee       0x33 /home/cy/cross-compiler-tools/gcc-linaro-6.2.1-2016.11-x86_64_arm-linux-gnueabihf/bin/../lib/gcc/arm-linux-gnueabihf/6.2.1/crtend.o
 .ARM.attributes
                0x0000000000000421       0x23 /home/cy/cross-compiler-tools/gcc-linaro-6.2.1-2016.11-x86_64_arm-linux-gnueabihf/bin/../arm-linux-gnueabihf/libc/usr/lib/crtn.o

.debug
 *(.debug)

.line
 *(.line)

.debug_srcinfo
 *(.debug_srcinfo)

.debug_sfnames
 *(.debug_sfnames)

.debug_aranges  0x0000000000000000      0x2b0
 *(.debug_aranges)
 .debug_aranges
                0x0000000000000000       0x38 /home/cy/cross-compiler-tools/gcc-linaro-6.2.1-2016.11-x86_64_arm-linux-gnueabihf/bin/../arm-linux-gnueabihf/libc/usr/lib/crt1.o
 .debug_aranges
                0x0000000000000038       0x30 /home/cy/cross-compiler-tools/gcc-linaro-6.2.1-2016.11-x86_64_arm-linux-gnueabihf/bin/../arm-linux-gnueabihf/libc/usr/lib/crti.o
 .debug_aranges
                0x0000000000000068       0x20 bin/debug/obj/main_host.ov7A
 .debug_aranges
                0x0000000000000088       0x20 bin/debug/obj/GateMPApp.ov7A
 .debug_aranges
                0x00000000000000a8       0x20 /home/cy/extern_disk/sdk/am5728/ti-processor-sdk-rtos-am57xx-evm-04.03.00.05/ipc_3_47_01_00/linux/src/transport/.libs/libtitransportrpmsg.a(TransportRpmsg.o)
 .debug_aranges
                0x00000000000000c8       0x20 /home/cy/extern_disk/sdk/am5728/ti-processor-sdk-rtos-am57xx-evm-04.03.00.05/ipc_3_47_01_00/linux/src/api/.libs/libtiipc.a(MessageQ.o)
 .debug_aranges
                0x00000000000000e8       0x20 /home/cy/extern_disk/sdk/am5728/ti-processor-sdk-rtos-am57xx-evm-04.03.00.05/ipc_3_47_01_00/linux/src/api/.libs/libtiipc.a(NameServer.o)
 .debug_aranges
                0x0000000000000108       0x20 /home/cy/extern_disk/sdk/am5728/ti-processor-sdk-rtos-am57xx-evm-04.03.00.05/ipc_3_47_01_00/linux/src/api/.libs/libtiipc.a(Ipc.o)
 .debug_aranges
                0x0000000000000128       0x20 /home/cy/extern_disk/sdk/am5728/ti-processor-sdk-rtos-am57xx-evm-04.03.00.05/ipc_3_47_01_00/linux/src/api/.libs/libtiipc.a(HeapStd.o)
 .debug_aranges
                0x0000000000000148       0x20 /home/cy/extern_disk/sdk/am5728/ti-processor-sdk-rtos-am57xx-evm-04.03.00.05/ipc_3_47_01_00/linux/src/api/.libs/libtiipc.a(GateMP.o)
 .debug_aranges
                0x0000000000000168       0x20 /home/cy/extern_disk/sdk/am5728/ti-processor-sdk-rtos-am57xx-evm-04.03.00.05/ipc_3_47_01_00/linux/src/api/.libs/libtiipc.a(GateHWSpinlock.o)
 .debug_aranges
                0x0000000000000188       0x20 /home/cy/extern_disk/sdk/am5728/ti-processor-sdk-rtos-am57xx-evm-04.03.00.05/ipc_3_47_01_00/linux/src/api/.libs/libtiipc.a(MultiProc.o)
 .debug_aranges
                0x00000000000001a8       0x20 /home/cy/extern_disk/sdk/am5728/ti-processor-sdk-rtos-am57xx-evm-04.03.00.05/ipc_3_47_01_00/linux/src/api/.libs/libtiipc.a(GateMutex.o)
 .debug_aranges
                0x00000000000001c8       0x20 /home/cy/extern_disk/sdk/am5728/ti-processor-sdk-rtos-am57xx-evm-04.03.00.05/ipc_3_47_01_00/linux/src/utils/.libs/libtiipcutils.a(LAD_client.o)
 .debug_aranges
                0x00000000000001e8       0x20 /home/cy/extern_disk/sdk/am5728/ti-processor-sdk-rtos-am57xx-evm-04.03.00.05/ipc_3_47_01_00/linux/src/utils/.libs/libtiipcutils.a(MultiProc.o)
 .debug_aranges
                0x0000000000000208       0x20 /home/cy/extern_disk/sdk/am5728/ti-processor-sdk-rtos-am57xx-evm-04.03.00.05/ipc_3_47_01_00/linux/src/utils/.libs/libtiipcutils.a(MultiProc_app.o)
 .debug_aranges
                0x0000000000000228       0x20 /home/cy/extern_disk/sdk/am5728/ti-processor-sdk-rtos-am57xx-evm-04.03.00.05/ipc_3_47_01_00/linux/src/utils/.libs/libtiipcutils.a(SocketFxns.o)
 .debug_aranges
                0x0000000000000248       0x20 /home/cy/zip/ludev/__install/lib/libticmem.a(cmem.o)
 .debug_aranges
                0x0000000000000268       0x20 /home/cy/cross-compiler-tools/gcc-linaro-6.2.1-2016.11-x86_64_arm-linux-gnueabihf/bin/../arm-linux-gnueabihf/libc/usr/lib/libc_nonshared.a(elf-init.oS)
 .debug_aranges
                0x0000000000000288       0x28 /home/cy/cross-compiler-tools/gcc-linaro-6.2.1-2016.11-x86_64_arm-linux-gnueabihf/bin/../arm-linux-gnueabihf/libc/usr/lib/crtn.o

.debug_pubnames
 *(.debug_pubnames)

.debug_info     0x0000000000000000    0x15c9f
 *(.debug_info .gnu.linkonce.wi.*)
 .debug_info    0x0000000000000000      0x164 /home/cy/cross-compiler-tools/gcc-linaro-6.2.1-2016.11-x86_64_arm-linux-gnueabihf/bin/../arm-linux-gnueabihf/libc/usr/lib/crt1.o
 .debug_info    0x0000000000000164       0xd7 /home/cy/cross-compiler-tools/gcc-linaro-6.2.1-2016.11-x86_64_arm-linux-gnueabihf/bin/../arm-linux-gnueabihf/libc/usr/lib/crti.o
 .debug_info    0x000000000000023b      0x53e bin/debug/obj/main_host.ov7A
 .debug_info    0x0000000000000779      0x830 bin/debug/obj/GateMPApp.ov7A
 .debug_info    0x0000000000000fa9     0x2433 /home/cy/extern_disk/sdk/am5728/ti-processor-sdk-rtos-am57xx-evm-04.03.00.05/ipc_3_47_01_00/linux/src/transport/.libs/libtitransportrpmsg.a(TransportRpmsg.o)
 .debug_info    0x00000000000033dc     0x34f3 /home/cy/extern_disk/sdk/am5728/ti-processor-sdk-rtos-am57xx-evm-04.03.00.05/ipc_3_47_01_00/linux/src/api/.libs/libtiipc.a(MessageQ.o)
 .debug_info    0x00000000000068cf     0x2468 /home/cy/extern_disk/sdk/am5728/ti-processor-sdk-rtos-am57xx-evm-04.03.00.05/ipc_3_47_01_00/linux/src/api/.libs/libtiipc.a(NameServer.o)
 .debug_info    0x0000000000008d37     0x2098 /home/cy/extern_disk/sdk/am5728/ti-processor-sdk-rtos-am57xx-evm-04.03.00.05/ipc_3_47_01_00/linux/src/api/.libs/libtiipc.a(Ipc.o)
 .debug_info    0x000000000000adcf      0x2a5 /home/cy/extern_disk/sdk/am5728/ti-processor-sdk-rtos-am57xx-evm-04.03.00.05/ipc_3_47_01_00/linux/src/api/.libs/libtiipc.a(HeapStd.o)
 .debug_info    0x000000000000b074     0x28ab /home/cy/extern_disk/sdk/am5728/ti-processor-sdk-rtos-am57xx-evm-04.03.00.05/ipc_3_47_01_00/linux/src/api/.libs/libtiipc.a(GateMP.o)
 .debug_info    0x000000000000d91f     0x1ad2 /home/cy/extern_disk/sdk/am5728/ti-processor-sdk-rtos-am57xx-evm-04.03.00.05/ipc_3_47_01_00/linux/src/api/.libs/libtiipc.a(GateHWSpinlock.o)
 .debug_info    0x000000000000f3f1     0x12d9 /home/cy/extern_disk/sdk/am5728/ti-processor-sdk-rtos-am57xx-evm-04.03.00.05/ipc_3_47_01_00/linux/src/api/.libs/libtiipc.a(MultiProc.o)
 .debug_info    0x00000000000106ca      0x708 /home/cy/extern_disk/sdk/am5728/ti-processor-sdk-rtos-am57xx-evm-04.03.00.05/ipc_3_47_01_00/linux/src/api/.libs/libtiipc.a(GateMutex.o)
 .debug_info    0x0000000000010dd2     0x1fc2 /home/cy/extern_disk/sdk/am5728/ti-processor-sdk-rtos-am57xx-evm-04.03.00.05/ipc_3_47_01_00/linux/src/utils/.libs/libtiipcutils.a(LAD_client.o)
 .debug_info    0x0000000000012d94      0x3ec /home/cy/extern_disk/sdk/am5728/ti-processor-sdk-rtos-am57xx-evm-04.03.00.05/ipc_3_47_01_00/linux/src/utils/.libs/libtiipcutils.a(MultiProc.o)
 .debug_info    0x0000000000013180      0x1ff /home/cy/extern_disk/sdk/am5728/ti-processor-sdk-rtos-am57xx-evm-04.03.00.05/ipc_3_47_01_00/linux/src/utils/.libs/libtiipcutils.a(MultiProc_app.o)
 .debug_info    0x000000000001337f      0xa74 /home/cy/extern_disk/sdk/am5728/ti-processor-sdk-rtos-am57xx-evm-04.03.00.05/ipc_3_47_01_00/linux/src/utils/.libs/libtiipcutils.a(SocketFxns.o)
 .debug_info    0x0000000000013df3     0x1c4c /home/cy/zip/ludev/__install/lib/libticmem.a(cmem.o)
 .debug_info    0x0000000000015a3f      0x189 /home/cy/cross-compiler-tools/gcc-linaro-6.2.1-2016.11-x86_64_arm-linux-gnueabihf/bin/../arm-linux-gnueabihf/libc/usr/lib/libc_nonshared.a(elf-init.oS)
 .debug_info    0x0000000000015bc8       0xd7 /home/cy/cross-compiler-tools/gcc-linaro-6.2.1-2016.11-x86_64_arm-linux-gnueabihf/bin/../arm-linux-gnueabihf/libc/usr/lib/crtn.o

.debug_abbrev   0x0000000000000000     0x31b5
 *(.debug_abbrev)
 .debug_abbrev  0x0000000000000000       0x52 /home/cy/cross-compiler-tools/gcc-linaro-6.2.1-2016.11-x86_64_arm-linux-gnueabihf/bin/../arm-linux-gnueabihf/libc/usr/lib/crt1.o
 .debug_abbrev  0x0000000000000052       0x12 /home/cy/cross-compiler-tools/gcc-linaro-6.2.1-2016.11-x86_64_arm-linux-gnueabihf/bin/../arm-linux-gnueabihf/libc/usr/lib/crti.o
 .debug_abbrev  0x0000000000000064      0x18e bin/debug/obj/main_host.ov7A
 .debug_abbrev  0x00000000000001f2      0x1e1 bin/debug/obj/GateMPApp.ov7A
 .debug_abbrev  0x00000000000003d3      0x4db /home/cy/extern_disk/sdk/am5728/ti-processor-sdk-rtos-am57xx-evm-04.03.00.05/ipc_3_47_01_00/linux/src/transport/.libs/libtitransportrpmsg.a(TransportRpmsg.o)
 .debug_abbrev  0x00000000000008ae      0x530 /home/cy/extern_disk/sdk/am5728/ti-processor-sdk-rtos-am57xx-evm-04.03.00.05/ipc_3_47_01_00/linux/src/api/.libs/libtiipc.a(MessageQ.o)
 .debug_abbrev  0x0000000000000dde      0x320 /home/cy/extern_disk/sdk/am5728/ti-processor-sdk-rtos-am57xx-evm-04.03.00.05/ipc_3_47_01_00/linux/src/api/.libs/libtiipc.a(NameServer.o)
 .debug_abbrev  0x00000000000010fe      0x43e /home/cy/extern_disk/sdk/am5728/ti-processor-sdk-rtos-am57xx-evm-04.03.00.05/ipc_3_47_01_00/linux/src/api/.libs/libtiipc.a(Ipc.o)
 .debug_abbrev  0x000000000000153c      0x142 /home/cy/extern_disk/sdk/am5728/ti-processor-sdk-rtos-am57xx-evm-04.03.00.05/ipc_3_47_01_00/linux/src/api/.libs/libtiipc.a(HeapStd.o)
 .debug_abbrev  0x000000000000167e      0x518 /home/cy/extern_disk/sdk/am5728/ti-processor-sdk-rtos-am57xx-evm-04.03.00.05/ipc_3_47_01_00/linux/src/api/.libs/libtiipc.a(GateMP.o)
 .debug_abbrev  0x0000000000001b96      0x426 /home/cy/extern_disk/sdk/am5728/ti-processor-sdk-rtos-am57xx-evm-04.03.00.05/ipc_3_47_01_00/linux/src/api/.libs/libtiipc.a(GateHWSpinlock.o)
 .debug_abbrev  0x0000000000001fbc      0x293 /home/cy/extern_disk/sdk/am5728/ti-processor-sdk-rtos-am57xx-evm-04.03.00.05/ipc_3_47_01_00/linux/src/api/.libs/libtiipc.a(MultiProc.o)
 .debug_abbrev  0x000000000000224f      0x25b /home/cy/extern_disk/sdk/am5728/ti-processor-sdk-rtos-am57xx-evm-04.03.00.05/ipc_3_47_01_00/linux/src/api/.libs/libtiipc.a(GateMutex.o)
 .debug_abbrev  0x00000000000024aa      0x3ea /home/cy/extern_disk/sdk/am5728/ti-processor-sdk-rtos-am57xx-evm-04.03.00.05/ipc_3_47_01_00/linux/src/utils/.libs/libtiipcutils.a(LAD_client.o)
 .debug_abbrev  0x0000000000002894      0x187 /home/cy/extern_disk/sdk/am5728/ti-processor-sdk-rtos-am57xx-evm-04.03.00.05/ipc_3_47_01_00/linux/src/utils/.libs/libtiipcutils.a(MultiProc.o)
 .debug_abbrev  0x0000000000002a1b      0x10d /home/cy/extern_disk/sdk/am5728/ti-processor-sdk-rtos-am57xx-evm-04.03.00.05/ipc_3_47_01_00/linux/src/utils/.libs/libtiipcutils.a(MultiProc_app.o)
 .debug_abbrev  0x0000000000002b28      0x1e1 /home/cy/extern_disk/sdk/am5728/ti-processor-sdk-rtos-am57xx-evm-04.03.00.05/ipc_3_47_01_00/linux/src/utils/.libs/libtiipcutils.a(SocketFxns.o)
 .debug_abbrev  0x0000000000002d09      0x382 /home/cy/zip/ludev/__install/lib/libticmem.a(cmem.o)
 .debug_abbrev  0x000000000000308b      0x118 /home/cy/cross-compiler-tools/gcc-linaro-6.2.1-2016.11-x86_64_arm-linux-gnueabihf/bin/../arm-linux-gnueabihf/libc/usr/lib/libc_nonshared.a(elf-init.oS)
 .debug_abbrev  0x00000000000031a3       0x12 /home/cy/cross-compiler-tools/gcc-linaro-6.2.1-2016.11-x86_64_arm-linux-gnueabihf/bin/../arm-linux-gnueabihf/libc/usr/lib/crtn.o

.debug_line     0x0000000000000000     0x58be
 *(.debug_line .debug_line.* .debug_line_end)
 .debug_line    0x0000000000000000       0x80 /home/cy/cross-compiler-tools/gcc-linaro-6.2.1-2016.11-x86_64_arm-linux-gnueabihf/bin/../arm-linux-gnueabihf/libc/usr/lib/crt1.o
 .debug_line    0x0000000000000080       0x6c /home/cy/cross-compiler-tools/gcc-linaro-6.2.1-2016.11-x86_64_arm-linux-gnueabihf/bin/../arm-linux-gnueabihf/libc/usr/lib/crti.o
 .debug_line    0x00000000000000ec      0x401 bin/debug/obj/main_host.ov7A
 .debug_line    0x00000000000004ed      0x43c bin/debug/obj/GateMPApp.ov7A
 .debug_line    0x0000000000000929      0x982 /home/cy/extern_disk/sdk/am5728/ti-processor-sdk-rtos-am57xx-evm-04.03.00.05/ipc_3_47_01_00/linux/src/transport/.libs/libtitransportrpmsg.a(TransportRpmsg.o)
 .debug_line    0x00000000000012ab      0xab1 /home/cy/extern_disk/sdk/am5728/ti-processor-sdk-rtos-am57xx-evm-04.03.00.05/ipc_3_47_01_00/linux/src/api/.libs/libtiipc.a(MessageQ.o)
 .debug_line    0x0000000000001d5c      0x973 /home/cy/extern_disk/sdk/am5728/ti-processor-sdk-rtos-am57xx-evm-04.03.00.05/ipc_3_47_01_00/linux/src/api/.libs/libtiipc.a(NameServer.o)
 .debug_line    0x00000000000026cf      0x64f /home/cy/extern_disk/sdk/am5728/ti-processor-sdk-rtos-am57xx-evm-04.03.00.05/ipc_3_47_01_00/linux/src/api/.libs/libtiipc.a(Ipc.o)
 .debug_line    0x0000000000002d1e      0x1ce /home/cy/extern_disk/sdk/am5728/ti-processor-sdk-rtos-am57xx-evm-04.03.00.05/ipc_3_47_01_00/linux/src/api/.libs/libtiipc.a(HeapStd.o)
 .debug_line    0x0000000000002eec      0x8d2 /home/cy/extern_disk/sdk/am5728/ti-processor-sdk-rtos-am57xx-evm-04.03.00.05/ipc_3_47_01_00/linux/src/api/.libs/libtiipc.a(GateMP.o)
 .debug_line    0x00000000000037be      0x5c7 /home/cy/extern_disk/sdk/am5728/ti-processor-sdk-rtos-am57xx-evm-04.03.00.05/ipc_3_47_01_00/linux/src/api/.libs/libtiipc.a(GateHWSpinlock.o)
 .debug_line    0x0000000000003d85      0x3ea /home/cy/extern_disk/sdk/am5728/ti-processor-sdk-rtos-am57xx-evm-04.03.00.05/ipc_3_47_01_00/linux/src/api/.libs/libtiipc.a(MultiProc.o)
 .debug_line    0x000000000000416f      0x227 /home/cy/extern_disk/sdk/am5728/ti-processor-sdk-rtos-am57xx-evm-04.03.00.05/ipc_3_47_01_00/linux/src/api/.libs/libtiipc.a(GateMutex.o)
 .debug_line    0x0000000000004396      0x63d /home/cy/extern_disk/sdk/am5728/ti-processor-sdk-rtos-am57xx-evm-04.03.00.05/ipc_3_47_01_00/linux/src/utils/.libs/libtiipcutils.a(LAD_client.o)
 .debug_line    0x00000000000049d3      0x216 /home/cy/extern_disk/sdk/am5728/ti-processor-sdk-rtos-am57xx-evm-04.03.00.05/ipc_3_47_01_00/linux/src/utils/.libs/libtiipcutils.a(MultiProc.o)
 .debug_line    0x0000000000004be9      0x11d /home/cy/extern_disk/sdk/am5728/ti-processor-sdk-rtos-am57xx-evm-04.03.00.05/ipc_3_47_01_00/linux/src/utils/.libs/libtiipcutils.a(MultiProc_app.o)
 .debug_line    0x0000000000004d06      0x4d6 /home/cy/extern_disk/sdk/am5728/ti-processor-sdk-rtos-am57xx-evm-04.03.00.05/ipc_3_47_01_00/linux/src/utils/.libs/libtiipcutils.a(SocketFxns.o)
 .debug_line    0x00000000000051dc      0x558 /home/cy/zip/ludev/__install/lib/libticmem.a(cmem.o)
 .debug_line    0x0000000000005734      0x136 /home/cy/cross-compiler-tools/gcc-linaro-6.2.1-2016.11-x86_64_arm-linux-gnueabihf/bin/../arm-linux-gnueabihf/libc/usr/lib/libc_nonshared.a(elf-init.oS)
 .debug_line    0x000000000000586a       0x54 /home/cy/cross-compiler-tools/gcc-linaro-6.2.1-2016.11-x86_64_arm-linux-gnueabihf/bin/../arm-linux-gnueabihf/libc/usr/lib/crtn.o

.debug_frame    0x0000000000000000     0x1688
 *(.debug_frame)
 .debug_frame   0x0000000000000000       0x80 bin/debug/obj/main_host.ov7A
 .debug_frame   0x0000000000000080       0xac bin/debug/obj/GateMPApp.ov7A
 .debug_frame   0x000000000000012c      0x1d4 /home/cy/extern_disk/sdk/am5728/ti-processor-sdk-rtos-am57xx-evm-04.03.00.05/ipc_3_47_01_00/linux/src/transport/.libs/libtitransportrpmsg.a(TransportRpmsg.o)
 .debug_frame   0x0000000000000300      0x3d8 /home/cy/extern_disk/sdk/am5728/ti-processor-sdk-rtos-am57xx-evm-04.03.00.05/ipc_3_47_01_00/linux/src/api/.libs/libtiipc.a(MessageQ.o)
 .debug_frame   0x00000000000006d8      0x308 /home/cy/extern_disk/sdk/am5728/ti-processor-sdk-rtos-am57xx-evm-04.03.00.05/ipc_3_47_01_00/linux/src/api/.libs/libtiipc.a(NameServer.o)
 .debug_frame   0x00000000000009e0      0x118 /home/cy/extern_disk/sdk/am5728/ti-processor-sdk-rtos-am57xx-evm-04.03.00.05/ipc_3_47_01_00/linux/src/api/.libs/libtiipc.a(Ipc.o)
 .debug_frame   0x0000000000000af8       0x60 /home/cy/extern_disk/sdk/am5728/ti-processor-sdk-rtos-am57xx-evm-04.03.00.05/ipc_3_47_01_00/linux/src/api/.libs/libtiipc.a(HeapStd.o)
 .debug_frame   0x0000000000000b58      0x294 /home/cy/extern_disk/sdk/am5728/ti-processor-sdk-rtos-am57xx-evm-04.03.00.05/ipc_3_47_01_00/linux/src/api/.libs/libtiipc.a(GateMP.o)
 .debug_frame   0x0000000000000dec      0x128 /home/cy/extern_disk/sdk/am5728/ti-processor-sdk-rtos-am57xx-evm-04.03.00.05/ipc_3_47_01_00/linux/src/api/.libs/libtiipc.a(GateHWSpinlock.o)
 .debug_frame   0x0000000000000f14       0x40 /home/cy/extern_disk/sdk/am5728/ti-processor-sdk-rtos-am57xx-evm-04.03.00.05/ipc_3_47_01_00/linux/src/api/.libs/libtiipc.a(MultiProc.o)
 .debug_frame   0x0000000000000f54       0x7c /home/cy/extern_disk/sdk/am5728/ti-processor-sdk-rtos-am57xx-evm-04.03.00.05/ipc_3_47_01_00/linux/src/api/.libs/libtiipc.a(GateMutex.o)
 .debug_frame   0x0000000000000fd0      0x108 /home/cy/extern_disk/sdk/am5728/ti-processor-sdk-rtos-am57xx-evm-04.03.00.05/ipc_3_47_01_00/linux/src/utils/.libs/libtiipcutils.a(LAD_client.o)
 .debug_frame   0x00000000000010d8       0xa4 /home/cy/extern_disk/sdk/am5728/ti-processor-sdk-rtos-am57xx-evm-04.03.00.05/ipc_3_47_01_00/linux/src/utils/.libs/libtiipcutils.a(MultiProc.o)
 .debug_frame   0x000000000000117c       0x20 /home/cy/extern_disk/sdk/am5728/ti-processor-sdk-rtos-am57xx-evm-04.03.00.05/ipc_3_47_01_00/linux/src/utils/.libs/libtiipcutils.a(MultiProc_app.o)
 .debug_frame   0x000000000000119c       0x6c /home/cy/extern_disk/sdk/am5728/ti-processor-sdk-rtos-am57xx-evm-04.03.00.05/ipc_3_47_01_00/linux/src/utils/.libs/libtiipcutils.a(SocketFxns.o)
 .debug_frame   0x0000000000001208      0x43c /home/cy/zip/ludev/__install/lib/libticmem.a(cmem.o)
 .debug_frame   0x0000000000001644       0x44 /home/cy/cross-compiler-tools/gcc-linaro-6.2.1-2016.11-x86_64_arm-linux-gnueabihf/bin/../arm-linux-gnueabihf/libc/usr/lib/libc_nonshared.a(elf-init.oS)

.debug_str      0x0000000000000000     0x33a3
 *(.debug_str)
 .debug_str     0x0000000000000000      0x1d7 /home/cy/cross-compiler-tools/gcc-linaro-6.2.1-2016.11-x86_64_arm-linux-gnueabihf/bin/../arm-linux-gnueabihf/libc/usr/lib/crt1.o
                                        0x217 (松开之前的大小)
 .debug_str     0x00000000000001d7      0x3a2 bin/debug/obj/main_host.ov7A
                                        0x480 (松开之前的大小)
 .debug_str     0x0000000000000579      0x371 bin/debug/obj/GateMPApp.ov7A
                                        0x788 (松开之前的大小)
 .debug_str     0x00000000000008ea      0xae0 /home/cy/extern_disk/sdk/am5728/ti-processor-sdk-rtos-am57xx-evm-04.03.00.05/ipc_3_47_01_00/linux/src/transport/.libs/libtitransportrpmsg.a(TransportRpmsg.o)
                                        0xf97 (松开之前的大小)
 .debug_str     0x00000000000013ca      0xd53 /home/cy/extern_disk/sdk/am5728/ti-processor-sdk-rtos-am57xx-evm-04.03.00.05/ipc_3_47_01_00/linux/src/api/.libs/libtiipc.a(MessageQ.o)
                                       0x1819 (松开之前的大小)
 .debug_str     0x000000000000211d      0x146 /home/cy/extern_disk/sdk/am5728/ti-processor-sdk-rtos-am57xx-evm-04.03.00.05/ipc_3_47_01_00/linux/src/api/.libs/libtiipc.a(NameServer.o)
                                        0xf82 (松开之前的大小)
 .debug_str     0x0000000000002263      0x226 /home/cy/extern_disk/sdk/am5728/ti-processor-sdk-rtos-am57xx-evm-04.03.00.05/ipc_3_47_01_00/linux/src/api/.libs/libtiipc.a(Ipc.o)
                                       0x137a (松开之前的大小)
 .debug_str     0x0000000000002489       0x72 /home/cy/extern_disk/sdk/am5728/ti-processor-sdk-rtos-am57xx-evm-04.03.00.05/ipc_3_47_01_00/linux/src/api/.libs/libtiipc.a(HeapStd.o)
                                        0x27b (松开之前的大小)
 .debug_str     0x00000000000024fb      0x424 /home/cy/extern_disk/sdk/am5728/ti-processor-sdk-rtos-am57xx-evm-04.03.00.05/ipc_3_47_01_00/linux/src/api/.libs/libtiipc.a(GateMP.o)
                                       0x1564 (松开之前的大小)
 .debug_str     0x000000000000291f      0x153 /home/cy/extern_disk/sdk/am5728/ti-processor-sdk-rtos-am57xx-evm-04.03.00.05/ipc_3_47_01_00/linux/src/api/.libs/libtiipc.a(GateHWSpinlock.o)
                                       0x1159 (松开之前的大小)
 .debug_str     0x0000000000002a72      0x153 /home/cy/extern_disk/sdk/am5728/ti-processor-sdk-rtos-am57xx-evm-04.03.00.05/ipc_3_47_01_00/linux/src/api/.libs/libtiipc.a(MultiProc.o)
                                        0xdc3 (松开之前的大小)
 .debug_str     0x0000000000002a72       0xb0 /home/cy/extern_disk/sdk/am5728/ti-processor-sdk-rtos-am57xx-evm-04.03.00.05/ipc_3_47_01_00/linux/src/api/.libs/libtiipc.a(GateMutex.o)
                                        0x561 (松开之前的大小)
 .debug_str     0x0000000000002b22      0x297 /home/cy/extern_disk/sdk/am5728/ti-processor-sdk-rtos-am57xx-evm-04.03.00.05/ipc_3_47_01_00/linux/src/utils/.libs/libtiipcutils.a(LAD_client.o)
                                       0x127a (松开之前的大小)
 .debug_str     0x0000000000002db9       0xa0 /home/cy/extern_disk/sdk/am5728/ti-processor-sdk-rtos-am57xx-evm-04.03.00.05/ipc_3_47_01_00/linux/src/utils/.libs/libtiipcutils.a(MultiProc.o)
                                        0x374 (松开之前的大小)
 .debug_str     0x0000000000002e59       0x10 /home/cy/extern_disk/sdk/am5728/ti-processor-sdk-rtos-am57xx-evm-04.03.00.05/ipc_3_47_01_00/linux/src/utils/.libs/libtiipcutils.a(MultiProc_app.o)
                                        0x277 (松开之前的大小)
 .debug_str     0x0000000000002e69       0x33 /home/cy/extern_disk/sdk/am5728/ti-processor-sdk-rtos-am57xx-evm-04.03.00.05/ipc_3_47_01_00/linux/src/utils/.libs/libtiipcutils.a(SocketFxns.o)
                                        0x726 (松开之前的大小)
 .debug_str     0x0000000000002e9c      0x381 /home/cy/zip/ludev/__install/lib/libticmem.a(cmem.o)
                                        0x784 (松开之前的大小)
 .debug_str     0x000000000000321d      0x186 /home/cy/cross-compiler-tools/gcc-linaro-6.2.1-2016.11-x86_64_arm-linux-gnueabihf/bin/../arm-linux-gnueabihf/libc/usr/lib/libc_nonshared.a(elf-init.oS)
                                        0x25f (松开之前的大小)

.debug_loc      0x0000000000000000     0x6b7c
 *(.debug_loc)
 .debug_loc     0x0000000000000000      0xdc8 /home/cy/extern_disk/sdk/am5728/ti-processor-sdk-rtos-am57xx-evm-04.03.00.05/ipc_3_47_01_00/linux/src/transport/.libs/libtitransportrpmsg.a(TransportRpmsg.o)
 .debug_loc     0x0000000000000dc8     0x1956 /home/cy/extern_disk/sdk/am5728/ti-processor-sdk-rtos-am57xx-evm-04.03.00.05/ipc_3_47_01_00/linux/src/api/.libs/libtiipc.a(MessageQ.o)
 .debug_loc     0x000000000000271e      0xf9d /home/cy/extern_disk/sdk/am5728/ti-processor-sdk-rtos-am57xx-evm-04.03.00.05/ipc_3_47_01_00/linux/src/api/.libs/libtiipc.a(NameServer.o)
 .debug_loc     0x00000000000036bb      0x692 /home/cy/extern_disk/sdk/am5728/ti-processor-sdk-rtos-am57xx-evm-04.03.00.05/ipc_3_47_01_00/linux/src/api/.libs/libtiipc.a(Ipc.o)
 .debug_loc     0x0000000000003d4d       0x84 /home/cy/extern_disk/sdk/am5728/ti-processor-sdk-rtos-am57xx-evm-04.03.00.05/ipc_3_47_01_00/linux/src/api/.libs/libtiipc.a(HeapStd.o)
 .debug_loc     0x0000000000003dd1      0xd39 /home/cy/extern_disk/sdk/am5728/ti-processor-sdk-rtos-am57xx-evm-04.03.00.05/ipc_3_47_01_00/linux/src/api/.libs/libtiipc.a(GateMP.o)
 .debug_loc     0x0000000000004b0a      0x4cd /home/cy/extern_disk/sdk/am5728/ti-processor-sdk-rtos-am57xx-evm-04.03.00.05/ipc_3_47_01_00/linux/src/api/.libs/libtiipc.a(GateHWSpinlock.o)
 .debug_loc     0x0000000000004fd7       0xcf /home/cy/extern_disk/sdk/am5728/ti-processor-sdk-rtos-am57xx-evm-04.03.00.05/ipc_3_47_01_00/linux/src/api/.libs/libtiipc.a(MultiProc.o)
 .debug_loc     0x00000000000050a6      0x1c1 /home/cy/extern_disk/sdk/am5728/ti-processor-sdk-rtos-am57xx-evm-04.03.00.05/ipc_3_47_01_00/linux/src/api/.libs/libtiipc.a(GateMutex.o)
 .debug_loc     0x0000000000005267      0x623 /home/cy/extern_disk/sdk/am5728/ti-processor-sdk-rtos-am57xx-evm-04.03.00.05/ipc_3_47_01_00/linux/src/utils/.libs/libtiipcutils.a(LAD_client.o)
 .debug_loc     0x000000000000588a       0xed /home/cy/extern_disk/sdk/am5728/ti-processor-sdk-rtos-am57xx-evm-04.03.00.05/ipc_3_47_01_00/linux/src/utils/.libs/libtiipcutils.a(MultiProc.o)
 .debug_loc     0x0000000000005977       0x2c /home/cy/extern_disk/sdk/am5728/ti-processor-sdk-rtos-am57xx-evm-04.03.00.05/ipc_3_47_01_00/linux/src/utils/.libs/libtiipcutils.a(MultiProc_app.o)
 .debug_loc     0x00000000000059a3      0x1f0 /home/cy/extern_disk/sdk/am5728/ti-processor-sdk-rtos-am57xx-evm-04.03.00.05/ipc_3_47_01_00/linux/src/utils/.libs/libtiipcutils.a(SocketFxns.o)
 .debug_loc     0x0000000000005b93      0xf0c /home/cy/zip/ludev/__install/lib/libticmem.a(cmem.o)
 .debug_loc     0x0000000000006a9f       0xdd /home/cy/cross-compiler-tools/gcc-linaro-6.2.1-2016.11-x86_64_arm-linux-gnueabihf/bin/../arm-linux-gnueabihf/libc/usr/lib/libc_nonshared.a(elf-init.oS)

.debug_macinfo
 *(.debug_macinfo)

.debug_weaknames
 *(.debug_weaknames)

.debug_funcnames
 *(.debug_funcnames)

.debug_typenames
 *(.debug_typenames)

.debug_varnames
 *(.debug_varnames)

.debug_pubtypes
 *(.debug_pubtypes)

.debug_ranges   0x0000000000000000      0x2e0
 *(.debug_ranges)
 .debug_ranges  0x0000000000000000       0x28 /home/cy/cross-compiler-tools/gcc-linaro-6.2.1-2016.11-x86_64_arm-linux-gnueabihf/bin/../arm-linux-gnueabihf/libc/usr/lib/crti.o
 .debug_ranges  0x0000000000000028       0x90 /home/cy/extern_disk/sdk/am5728/ti-processor-sdk-rtos-am57xx-evm-04.03.00.05/ipc_3_47_01_00/linux/src/transport/.libs/libtitransportrpmsg.a(TransportRpmsg.o)
 .debug_ranges  0x00000000000000b8       0x88 /home/cy/extern_disk/sdk/am5728/ti-processor-sdk-rtos-am57xx-evm-04.03.00.05/ipc_3_47_01_00/linux/src/api/.libs/libtiipc.a(MessageQ.o)
 .debug_ranges  0x0000000000000140       0x18 /home/cy/extern_disk/sdk/am5728/ti-processor-sdk-rtos-am57xx-evm-04.03.00.05/ipc_3_47_01_00/linux/src/api/.libs/libtiipc.a(Ipc.o)
 .debug_ranges  0x0000000000000158       0x60 /home/cy/extern_disk/sdk/am5728/ti-processor-sdk-rtos-am57xx-evm-04.03.00.05/ipc_3_47_01_00/linux/src/api/.libs/libtiipc.a(GateMP.o)
 .debug_ranges  0x00000000000001b8       0x60 /home/cy/extern_disk/sdk/am5728/ti-processor-sdk-rtos-am57xx-evm-04.03.00.05/ipc_3_47_01_00/linux/src/api/.libs/libtiipc.a(GateHWSpinlock.o)
 .debug_ranges  0x0000000000000218       0x90 /home/cy/extern_disk/sdk/am5728/ti-processor-sdk-rtos-am57xx-evm-04.03.00.05/ipc_3_47_01_00/linux/src/utils/.libs/libtiipcutils.a(LAD_client.o)
 .debug_ranges  0x00000000000002a8       0x18 /home/cy/zip/ludev/__install/lib/libticmem.a(cmem.o)
 .debug_ranges  0x00000000000002c0       0x20 /home/cy/cross-compiler-tools/gcc-linaro-6.2.1-2016.11-x86_64_arm-linux-gnueabihf/bin/../arm-linux-gnueabihf/libc/usr/lib/crtn.o

.debug_macro
 *(.debug_macro)

.debug_addr
 *(.debug_addr)

.gnu.attributes
 *(.gnu.attributes)

.note.gnu.arm.ident
 *(.note.gnu.arm.ident)

/DISCARD/
 *(.note.GNU-stack)
 *(.gnu_debuglink)
 *(.gnu.lto_*)
OUTPUT(bin/debug/app_host elf32-littlearm)
